   1               		.file	"suspend.c"
   2               	__SP_H__ = 0x3e
   3               	__SP_L__ = 0x3d
   4               	__SREG__ = 0x3f
   5               	__tmp_reg__ = 0
   6               	__zero_reg__ = 1
   7               		.text
   8               	.Ltext0:
   9               		.cfi_sections	.debug_frame
  10               		.section	.text.suspend_idle,"ax",@progbits
  11               	.global	suspend_idle
  13               	suspend_idle:
  14               	.LVL0:
  15               	.LFB110:
  16               		.file 1 "tmk_core/common/avr/suspend.c"
   1:tmk_core/common/avr/suspend.c **** #include <stdbool.h>
   2:tmk_core/common/avr/suspend.c **** #include <avr/sleep.h>
   3:tmk_core/common/avr/suspend.c **** #include <avr/wdt.h>
   4:tmk_core/common/avr/suspend.c **** #include <avr/interrupt.h>
   5:tmk_core/common/avr/suspend.c **** #include "matrix.h"
   6:tmk_core/common/avr/suspend.c **** #include "action.h"
   7:tmk_core/common/avr/suspend.c **** #include "suspend_avr.h"
   8:tmk_core/common/avr/suspend.c **** #include "suspend.h"
   9:tmk_core/common/avr/suspend.c **** #include "timer.h"
  10:tmk_core/common/avr/suspend.c **** #include "led.h"
  11:tmk_core/common/avr/suspend.c **** #include "host.h"
  12:tmk_core/common/avr/suspend.c **** 
  13:tmk_core/common/avr/suspend.c **** #ifdef PROTOCOL_LUFA
  14:tmk_core/common/avr/suspend.c **** #    include "lufa.h"
  15:tmk_core/common/avr/suspend.c **** #endif
  16:tmk_core/common/avr/suspend.c **** 
  17:tmk_core/common/avr/suspend.c **** #ifdef BACKLIGHT_ENABLE
  18:tmk_core/common/avr/suspend.c **** #    include "backlight.h"
  19:tmk_core/common/avr/suspend.c **** #endif
  20:tmk_core/common/avr/suspend.c **** 
  21:tmk_core/common/avr/suspend.c **** #ifdef AUDIO_ENABLE
  22:tmk_core/common/avr/suspend.c **** #    include "audio.h"
  23:tmk_core/common/avr/suspend.c **** #endif /* AUDIO_ENABLE */
  24:tmk_core/common/avr/suspend.c **** 
  25:tmk_core/common/avr/suspend.c **** #if defined(RGBLIGHT_SLEEP) && defined(RGBLIGHT_ENABLE)
  26:tmk_core/common/avr/suspend.c **** #    include "rgblight.h"
  27:tmk_core/common/avr/suspend.c **** extern rgblight_config_t rgblight_config;
  28:tmk_core/common/avr/suspend.c **** static bool              rgblight_enabled;
  29:tmk_core/common/avr/suspend.c **** static bool              is_suspended;
  30:tmk_core/common/avr/suspend.c **** #endif
  31:tmk_core/common/avr/suspend.c **** 
  32:tmk_core/common/avr/suspend.c **** /** \brief Suspend idle
  33:tmk_core/common/avr/suspend.c ****  *
  34:tmk_core/common/avr/suspend.c ****  * FIXME: needs doc
  35:tmk_core/common/avr/suspend.c ****  */
  36:tmk_core/common/avr/suspend.c **** void suspend_idle(uint8_t time) {
  17               		.loc 1 36 33 view -0
  18               		.cfi_startproc
  19               	/* prologue: function */
  20               	/* frame size = 0 */
  21               	/* stack size = 0 */
  22               	.L__stack_usage = 0
  37:tmk_core/common/avr/suspend.c ****     cli();
  23               		.loc 1 37 5 view .LVU1
  24               	/* #APP */
  25               	 ;  37 "tmk_core/common/avr/suspend.c" 1
  26 0000 F894      		cli
  27               	 ;  0 "" 2
  38:tmk_core/common/avr/suspend.c ****     set_sleep_mode(SLEEP_MODE_IDLE);
  28               		.loc 1 38 5 view .LVU2
  29               		.loc 1 38 5 view .LVU3
  30               	/* #NOAPP */
  31 0002 83B7      		in r24,0x33
  32               	.LVL1:
  33               		.loc 1 38 5 is_stmt 0 view .LVU4
  34 0004 817F      		andi r24,lo8(-15)
  35 0006 83BF      		out 0x33,r24
  36               		.loc 1 38 5 is_stmt 1 view .LVU5
  39:tmk_core/common/avr/suspend.c ****     sleep_enable();
  37               		.loc 1 39 5 view .LVU6
  38               		.loc 1 39 5 view .LVU7
  39 0008 83B7      		in r24,0x33
  40 000a 8160      		ori r24,lo8(1)
  41 000c 83BF      		out 0x33,r24
  42               		.loc 1 39 5 view .LVU8
  40:tmk_core/common/avr/suspend.c ****     sei();
  43               		.loc 1 40 5 view .LVU9
  44               	/* #APP */
  45               	 ;  40 "tmk_core/common/avr/suspend.c" 1
  46 000e 7894      		sei
  47               	 ;  0 "" 2
  41:tmk_core/common/avr/suspend.c ****     sleep_cpu();
  48               		.loc 1 41 5 view .LVU10
  49               		.loc 1 41 5 view .LVU11
  50               	 ;  41 "tmk_core/common/avr/suspend.c" 1
  51 0010 8895      		sleep
  52               		
  53               	 ;  0 "" 2
  54               		.loc 1 41 5 view .LVU12
  42:tmk_core/common/avr/suspend.c ****     sleep_disable();
  55               		.loc 1 42 5 view .LVU13
  56               		.loc 1 42 5 view .LVU14
  57               	/* #NOAPP */
  58 0012 83B7      		in r24,0x33
  59 0014 8E7F      		andi r24,lo8(-2)
  60 0016 83BF      		out 0x33,r24
  61               		.loc 1 42 5 view .LVU15
  62               	/* epilogue start */
  43:tmk_core/common/avr/suspend.c **** }
  63               		.loc 1 43 1 is_stmt 0 view .LVU16
  64 0018 0895      		ret
  65               		.cfi_endproc
  66               	.LFE110:
  68               		.section	.text.matrix_power_up,"ax",@progbits
  69               		.weak	matrix_power_up
  71               	matrix_power_up:
  72               	.LFB115:
  44:tmk_core/common/avr/suspend.c **** 
  45:tmk_core/common/avr/suspend.c **** // TODO: This needs some cleanup
  46:tmk_core/common/avr/suspend.c **** 
  47:tmk_core/common/avr/suspend.c **** /** \brief Run keyboard level Power down
  48:tmk_core/common/avr/suspend.c ****  *
  49:tmk_core/common/avr/suspend.c ****  * FIXME: needs doc
  50:tmk_core/common/avr/suspend.c ****  */
  51:tmk_core/common/avr/suspend.c **** __attribute__((weak)) void suspend_power_down_user(void) {}
  52:tmk_core/common/avr/suspend.c **** /** \brief Run keyboard level Power down
  53:tmk_core/common/avr/suspend.c ****  *
  54:tmk_core/common/avr/suspend.c ****  * FIXME: needs doc
  55:tmk_core/common/avr/suspend.c ****  */
  56:tmk_core/common/avr/suspend.c **** __attribute__((weak)) void suspend_power_down_kb(void) { suspend_power_down_user(); }
  57:tmk_core/common/avr/suspend.c **** 
  58:tmk_core/common/avr/suspend.c **** #ifndef NO_SUSPEND_POWER_DOWN
  59:tmk_core/common/avr/suspend.c **** /** \brief Power down MCU with watchdog timer
  60:tmk_core/common/avr/suspend.c ****  *
  61:tmk_core/common/avr/suspend.c ****  * wdto: watchdog timer timeout defined in <avr/wdt.h>
  62:tmk_core/common/avr/suspend.c ****  *          WDTO_15MS
  63:tmk_core/common/avr/suspend.c ****  *          WDTO_30MS
  64:tmk_core/common/avr/suspend.c ****  *          WDTO_60MS
  65:tmk_core/common/avr/suspend.c ****  *          WDTO_120MS
  66:tmk_core/common/avr/suspend.c ****  *          WDTO_250MS
  67:tmk_core/common/avr/suspend.c ****  *          WDTO_500MS
  68:tmk_core/common/avr/suspend.c ****  *          WDTO_1S
  69:tmk_core/common/avr/suspend.c ****  *          WDTO_2S
  70:tmk_core/common/avr/suspend.c ****  *          WDTO_4S
  71:tmk_core/common/avr/suspend.c ****  *          WDTO_8S
  72:tmk_core/common/avr/suspend.c ****  */
  73:tmk_core/common/avr/suspend.c **** static uint8_t wdt_timeout = 0;
  74:tmk_core/common/avr/suspend.c **** 
  75:tmk_core/common/avr/suspend.c **** /** \brief Power down
  76:tmk_core/common/avr/suspend.c ****  *
  77:tmk_core/common/avr/suspend.c ****  * FIXME: needs doc
  78:tmk_core/common/avr/suspend.c ****  */
  79:tmk_core/common/avr/suspend.c **** static void power_down(uint8_t wdto) {
  80:tmk_core/common/avr/suspend.c **** #    ifdef PROTOCOL_LUFA
  81:tmk_core/common/avr/suspend.c ****     if (USB_DeviceState == DEVICE_STATE_Configured) return;
  82:tmk_core/common/avr/suspend.c **** #    endif
  83:tmk_core/common/avr/suspend.c ****     wdt_timeout = wdto;
  84:tmk_core/common/avr/suspend.c **** 
  85:tmk_core/common/avr/suspend.c ****     // Watchdog Interrupt Mode
  86:tmk_core/common/avr/suspend.c ****     wdt_intr_enable(wdto);
  87:tmk_core/common/avr/suspend.c **** 
  88:tmk_core/common/avr/suspend.c **** #    ifdef BACKLIGHT_ENABLE
  89:tmk_core/common/avr/suspend.c ****     backlight_set(0);
  90:tmk_core/common/avr/suspend.c **** #    endif
  91:tmk_core/common/avr/suspend.c **** 
  92:tmk_core/common/avr/suspend.c ****     // Turn off LED indicators
  93:tmk_core/common/avr/suspend.c ****     uint8_t leds_off = 0;
  94:tmk_core/common/avr/suspend.c **** #    if defined(BACKLIGHT_CAPS_LOCK) && defined(BACKLIGHT_ENABLE)
  95:tmk_core/common/avr/suspend.c ****     if (is_backlight_enabled()) {
  96:tmk_core/common/avr/suspend.c ****         // Don't try to turn off Caps Lock indicator as it is backlight and backlight is already of
  97:tmk_core/common/avr/suspend.c ****         leds_off |= (1 << USB_LED_CAPS_LOCK);
  98:tmk_core/common/avr/suspend.c ****     }
  99:tmk_core/common/avr/suspend.c **** #    endif
 100:tmk_core/common/avr/suspend.c ****     led_set(leds_off);
 101:tmk_core/common/avr/suspend.c **** 
 102:tmk_core/common/avr/suspend.c **** #    ifdef AUDIO_ENABLE
 103:tmk_core/common/avr/suspend.c ****     // This sometimes disables the start-up noise, so it's been disabled
 104:tmk_core/common/avr/suspend.c ****     // stop_all_notes();
 105:tmk_core/common/avr/suspend.c **** #    endif /* AUDIO_ENABLE */
 106:tmk_core/common/avr/suspend.c **** #    if defined(RGBLIGHT_SLEEP) && defined(RGBLIGHT_ENABLE)
 107:tmk_core/common/avr/suspend.c ****     rgblight_timer_disable();
 108:tmk_core/common/avr/suspend.c ****     if (!is_suspended) {
 109:tmk_core/common/avr/suspend.c ****         is_suspended     = true;
 110:tmk_core/common/avr/suspend.c ****         rgblight_enabled = rgblight_config.enable;
 111:tmk_core/common/avr/suspend.c ****         rgblight_disable_noeeprom();
 112:tmk_core/common/avr/suspend.c ****     }
 113:tmk_core/common/avr/suspend.c **** #    endif
 114:tmk_core/common/avr/suspend.c ****     suspend_power_down_kb();
 115:tmk_core/common/avr/suspend.c **** 
 116:tmk_core/common/avr/suspend.c ****     // TODO: more power saving
 117:tmk_core/common/avr/suspend.c ****     // See PicoPower application note
 118:tmk_core/common/avr/suspend.c ****     // - I/O port input with pullup
 119:tmk_core/common/avr/suspend.c ****     // - prescale clock
 120:tmk_core/common/avr/suspend.c ****     // - BOD disable
 121:tmk_core/common/avr/suspend.c ****     // - Power Reduction Register PRR
 122:tmk_core/common/avr/suspend.c ****     set_sleep_mode(SLEEP_MODE_PWR_DOWN);
 123:tmk_core/common/avr/suspend.c ****     sleep_enable();
 124:tmk_core/common/avr/suspend.c ****     sei();
 125:tmk_core/common/avr/suspend.c ****     sleep_cpu();
 126:tmk_core/common/avr/suspend.c ****     sleep_disable();
 127:tmk_core/common/avr/suspend.c **** 
 128:tmk_core/common/avr/suspend.c ****     // Disable watchdog after sleep
 129:tmk_core/common/avr/suspend.c ****     wdt_disable();
 130:tmk_core/common/avr/suspend.c **** }
 131:tmk_core/common/avr/suspend.c **** #endif
 132:tmk_core/common/avr/suspend.c **** 
 133:tmk_core/common/avr/suspend.c **** /** \brief Suspend power down
 134:tmk_core/common/avr/suspend.c ****  *
 135:tmk_core/common/avr/suspend.c ****  * FIXME: needs doc
 136:tmk_core/common/avr/suspend.c ****  */
 137:tmk_core/common/avr/suspend.c **** void suspend_power_down(void) {
 138:tmk_core/common/avr/suspend.c ****     suspend_power_down_kb();
 139:tmk_core/common/avr/suspend.c **** 
 140:tmk_core/common/avr/suspend.c **** #ifndef NO_SUSPEND_POWER_DOWN
 141:tmk_core/common/avr/suspend.c ****     power_down(WDTO_15MS);
 142:tmk_core/common/avr/suspend.c **** #endif
 143:tmk_core/common/avr/suspend.c **** }
 144:tmk_core/common/avr/suspend.c **** 
 145:tmk_core/common/avr/suspend.c **** __attribute__((weak)) void matrix_power_up(void) {}
  73               		.loc 1 145 50 is_stmt 1 view -0
  74               		.cfi_startproc
  75               	/* prologue: function */
  76               	/* frame size = 0 */
  77               	/* stack size = 0 */
  78               	.L__stack_usage = 0
  79               		.loc 1 145 51 view .LVU18
  80               	/* epilogue start */
  81               		.loc 1 145 1 is_stmt 0 view .LVU19
  82 0000 0895      		ret
  83               		.cfi_endproc
  84               	.LFE115:
  86               		.set	matrix_power_up.localalias.0,matrix_power_up
  87               		.section	.text.suspend_power_down_user,"ax",@progbits
  88               		.weak	suspend_power_down_user
  90               	suspend_power_down_user:
  91               	.LFB127:
  92               		.cfi_startproc
  93               	/* prologue: function */
  94               	/* frame size = 0 */
  95               	/* stack size = 0 */
  96               	.L__stack_usage = 0
  97               	/* epilogue start */
  98 0000 0895      		ret
  99               		.cfi_endproc
 100               	.LFE127:
 102               		.section	.text.suspend_power_down_kb,"ax",@progbits
 103               		.weak	suspend_power_down_kb
 105               	suspend_power_down_kb:
 106               	.LFB112:
  56:tmk_core/common/avr/suspend.c **** 
 107               		.loc 1 56 56 is_stmt 1 view -0
 108               		.cfi_startproc
 109               	/* prologue: function */
 110               	/* frame size = 0 */
 111               	/* stack size = 0 */
 112               	.L__stack_usage = 0
  56:tmk_core/common/avr/suspend.c **** 
 113               		.loc 1 56 58 view .LVU21
 114 0000 0C94 0000 		jmp suspend_power_down_user
 115               	.LVL2:
 116               		.cfi_endproc
 117               	.LFE112:
 119               		.section	.text.suspend_power_down,"ax",@progbits
 120               	.global	suspend_power_down
 122               	suspend_power_down:
 123               	.LFB114:
 137:tmk_core/common/avr/suspend.c ****     suspend_power_down_kb();
 124               		.loc 1 137 31 view -0
 125               		.cfi_startproc
 126               	/* prologue: function */
 127               	/* frame size = 0 */
 128               	/* stack size = 0 */
 129               	.L__stack_usage = 0
 138:tmk_core/common/avr/suspend.c **** 
 130               		.loc 1 138 5 view .LVU23
 131 0000 0E94 0000 		call suspend_power_down_kb
 132               	.LVL3:
 141:tmk_core/common/avr/suspend.c **** #endif
 133               		.loc 1 141 5 view .LVU24
 134               	.LBB11:
 135               	.LBI11:
  79:tmk_core/common/avr/suspend.c **** #    ifdef PROTOCOL_LUFA
 136               		.loc 1 79 13 view .LVU25
 137               	.LBB12:
  81:tmk_core/common/avr/suspend.c **** #    endif
 138               		.loc 1 81 5 view .LVU26
  81:tmk_core/common/avr/suspend.c **** #    endif
 139               		.loc 1 81 25 is_stmt 0 view .LVU27
 140 0004 8091 0000 		lds r24,USB_DeviceState
  81:tmk_core/common/avr/suspend.c **** #    endif
 141               		.loc 1 81 8 view .LVU28
 142 0008 8430      		cpi r24,lo8(4)
 143 000a 01F0      		breq .L5
  83:tmk_core/common/avr/suspend.c **** 
 144               		.loc 1 83 5 is_stmt 1 view .LVU29
  83:tmk_core/common/avr/suspend.c **** 
 145               		.loc 1 83 17 is_stmt 0 view .LVU30
 146 000c 1092 0000 		sts wdt_timeout,__zero_reg__
  86:tmk_core/common/avr/suspend.c **** 
 147               		.loc 1 86 5 is_stmt 1 view .LVU31
 148 0010 88E1      		ldi r24,lo8(24)
 149 0012 90E0      		ldi r25,0
 150 0014 20E4      		ldi r18,lo8(64)
 151               	/* #APP */
 152               	 ;  86 "tmk_core/common/avr/suspend.c" 1
 153 0016 0FB6      		in __tmp_reg__,__SREG__
 154 0018 F894      		cli
 155 001a A895      		wdr
 156 001c 8093 6000 		sts 96,r24
 157 0020 0FBE      		out __SREG__,__tmp_reg__
 158 0022 2093 6000 		sts 96,r18
 159               		
 160               	 ;  0 "" 2
  93:tmk_core/common/avr/suspend.c **** #    if defined(BACKLIGHT_CAPS_LOCK) && defined(BACKLIGHT_ENABLE)
 161               		.loc 1 93 5 view .LVU32
 162               	.LVL4:
 100:tmk_core/common/avr/suspend.c **** 
 163               		.loc 1 100 5 view .LVU33
 164               	/* #NOAPP */
 165 0026 80E0      		ldi r24,0
 166 0028 0E94 0000 		call led_set
 167               	.LVL5:
 114:tmk_core/common/avr/suspend.c **** 
 168               		.loc 1 114 5 view .LVU34
 169 002c 0E94 0000 		call suspend_power_down_kb
 170               	.LVL6:
 122:tmk_core/common/avr/suspend.c ****     sleep_enable();
 171               		.loc 1 122 5 view .LVU35
 122:tmk_core/common/avr/suspend.c ****     sleep_enable();
 172               		.loc 1 122 5 view .LVU36
 173 0030 83B7      		in r24,0x33
 174 0032 817F      		andi r24,lo8(-15)
 175 0034 8460      		ori r24,lo8(4)
 176 0036 83BF      		out 0x33,r24
 122:tmk_core/common/avr/suspend.c ****     sleep_enable();
 177               		.loc 1 122 5 view .LVU37
 123:tmk_core/common/avr/suspend.c ****     sei();
 178               		.loc 1 123 5 view .LVU38
 123:tmk_core/common/avr/suspend.c ****     sei();
 179               		.loc 1 123 5 view .LVU39
 180 0038 83B7      		in r24,0x33
 181 003a 8160      		ori r24,lo8(1)
 182 003c 83BF      		out 0x33,r24
 123:tmk_core/common/avr/suspend.c ****     sei();
 183               		.loc 1 123 5 view .LVU40
 124:tmk_core/common/avr/suspend.c ****     sleep_cpu();
 184               		.loc 1 124 5 view .LVU41
 185               	/* #APP */
 186               	 ;  124 "tmk_core/common/avr/suspend.c" 1
 187 003e 7894      		sei
 188               	 ;  0 "" 2
 125:tmk_core/common/avr/suspend.c ****     sleep_disable();
 189               		.loc 1 125 5 view .LVU42
 125:tmk_core/common/avr/suspend.c ****     sleep_disable();
 190               		.loc 1 125 5 view .LVU43
 191               	 ;  125 "tmk_core/common/avr/suspend.c" 1
 192 0040 8895      		sleep
 193               		
 194               	 ;  0 "" 2
 125:tmk_core/common/avr/suspend.c ****     sleep_disable();
 195               		.loc 1 125 5 view .LVU44
 126:tmk_core/common/avr/suspend.c **** 
 196               		.loc 1 126 5 view .LVU45
 126:tmk_core/common/avr/suspend.c **** 
 197               		.loc 1 126 5 view .LVU46
 198               	/* #NOAPP */
 199 0042 83B7      		in r24,0x33
 200 0044 8E7F      		andi r24,lo8(-2)
 201 0046 83BF      		out 0x33,r24
 126:tmk_core/common/avr/suspend.c **** 
 202               		.loc 1 126 5 view .LVU47
 129:tmk_core/common/avr/suspend.c **** }
 203               		.loc 1 129 5 view .LVU48
 204               	.LBB13:
 205               	.LBI13:
 206               		.file 2 "c:\\msys64\\mingw64\\avr\\include\\avr\\wdt.h"
   1:c:\msys64\mingw64\avr\include\avr\wdt.h **** /* Copyright (c) 2002, 2004 Marek Michalkiewicz
   2:c:\msys64\mingw64\avr\include\avr\wdt.h ****    Copyright (c) 2005, 2006, 2007 Eric B. Weddington
   3:c:\msys64\mingw64\avr\include\avr\wdt.h ****    All rights reserved.
   4:c:\msys64\mingw64\avr\include\avr\wdt.h **** 
   5:c:\msys64\mingw64\avr\include\avr\wdt.h ****    Redistribution and use in source and binary forms, with or without
   6:c:\msys64\mingw64\avr\include\avr\wdt.h ****    modification, are permitted provided that the following conditions are met:
   7:c:\msys64\mingw64\avr\include\avr\wdt.h **** 
   8:c:\msys64\mingw64\avr\include\avr\wdt.h ****    * Redistributions of source code must retain the above copyright
   9:c:\msys64\mingw64\avr\include\avr\wdt.h ****      notice, this list of conditions and the following disclaimer.
  10:c:\msys64\mingw64\avr\include\avr\wdt.h **** 
  11:c:\msys64\mingw64\avr\include\avr\wdt.h ****    * Redistributions in binary form must reproduce the above copyright
  12:c:\msys64\mingw64\avr\include\avr\wdt.h ****      notice, this list of conditions and the following disclaimer in
  13:c:\msys64\mingw64\avr\include\avr\wdt.h ****      the documentation and/or other materials provided with the
  14:c:\msys64\mingw64\avr\include\avr\wdt.h ****      distribution.
  15:c:\msys64\mingw64\avr\include\avr\wdt.h **** 
  16:c:\msys64\mingw64\avr\include\avr\wdt.h ****    * Neither the name of the copyright holders nor the names of
  17:c:\msys64\mingw64\avr\include\avr\wdt.h ****      contributors may be used to endorse or promote products derived
  18:c:\msys64\mingw64\avr\include\avr\wdt.h ****      from this software without specific prior written permission.
  19:c:\msys64\mingw64\avr\include\avr\wdt.h **** 
  20:c:\msys64\mingw64\avr\include\avr\wdt.h ****   THIS SOFTWARE IS PROVIDED BY THE COPYRIGHT HOLDERS AND CONTRIBUTORS "AS IS"
  21:c:\msys64\mingw64\avr\include\avr\wdt.h ****   AND ANY EXPRESS OR IMPLIED WARRANTIES, INCLUDING, BUT NOT LIMITED TO, THE
  22:c:\msys64\mingw64\avr\include\avr\wdt.h ****   IMPLIED WARRANTIES OF MERCHANTABILITY AND FITNESS FOR A PARTICULAR PURPOSE
  23:c:\msys64\mingw64\avr\include\avr\wdt.h ****   ARE DISCLAIMED. IN NO EVENT SHALL THE COPYRIGHT OWNER OR CONTRIBUTORS BE
  24:c:\msys64\mingw64\avr\include\avr\wdt.h ****   LIABLE FOR ANY DIRECT, INDIRECT, INCIDENTAL, SPECIAL, EXEMPLARY, OR
  25:c:\msys64\mingw64\avr\include\avr\wdt.h ****   CONSEQUENTIAL DAMAGES (INCLUDING, BUT NOT LIMITED TO, PROCUREMENT OF
  26:c:\msys64\mingw64\avr\include\avr\wdt.h ****   SUBSTITUTE GOODS OR SERVICES; LOSS OF USE, DATA, OR PROFITS; OR BUSINESS
  27:c:\msys64\mingw64\avr\include\avr\wdt.h ****   INTERRUPTION) HOWEVER CAUSED AND ON ANY THEORY OF LIABILITY, WHETHER IN
  28:c:\msys64\mingw64\avr\include\avr\wdt.h ****   CONTRACT, STRICT LIABILITY, OR TORT (INCLUDING NEGLIGENCE OR OTHERWISE)
  29:c:\msys64\mingw64\avr\include\avr\wdt.h ****   ARISING IN ANY WAY OUT OF THE USE OF THIS SOFTWARE, EVEN IF ADVISED OF THE
  30:c:\msys64\mingw64\avr\include\avr\wdt.h ****   POSSIBILITY OF SUCH DAMAGE. */
  31:c:\msys64\mingw64\avr\include\avr\wdt.h **** 
  32:c:\msys64\mingw64\avr\include\avr\wdt.h **** /* $Id: wdt.h 2503 2016-02-07 22:59:47Z joerg_wunsch $ */
  33:c:\msys64\mingw64\avr\include\avr\wdt.h **** 
  34:c:\msys64\mingw64\avr\include\avr\wdt.h **** /*
  35:c:\msys64\mingw64\avr\include\avr\wdt.h ****    avr/wdt.h - macros for AVR watchdog timer
  36:c:\msys64\mingw64\avr\include\avr\wdt.h ****  */
  37:c:\msys64\mingw64\avr\include\avr\wdt.h **** 
  38:c:\msys64\mingw64\avr\include\avr\wdt.h **** #ifndef _AVR_WDT_H_
  39:c:\msys64\mingw64\avr\include\avr\wdt.h **** #define _AVR_WDT_H_
  40:c:\msys64\mingw64\avr\include\avr\wdt.h **** 
  41:c:\msys64\mingw64\avr\include\avr\wdt.h **** #include <avr/io.h>
  42:c:\msys64\mingw64\avr\include\avr\wdt.h **** #include <stdint.h>
  43:c:\msys64\mingw64\avr\include\avr\wdt.h **** 
  44:c:\msys64\mingw64\avr\include\avr\wdt.h **** /** \file */
  45:c:\msys64\mingw64\avr\include\avr\wdt.h **** /** \defgroup avr_watchdog <avr/wdt.h>: Watchdog timer handling
  46:c:\msys64\mingw64\avr\include\avr\wdt.h ****     \code #include <avr/wdt.h> \endcode
  47:c:\msys64\mingw64\avr\include\avr\wdt.h **** 
  48:c:\msys64\mingw64\avr\include\avr\wdt.h ****     This header file declares the interface to some inline macros
  49:c:\msys64\mingw64\avr\include\avr\wdt.h ****     handling the watchdog timer present in many AVR devices.  In order
  50:c:\msys64\mingw64\avr\include\avr\wdt.h ****     to prevent the watchdog timer configuration from being
  51:c:\msys64\mingw64\avr\include\avr\wdt.h ****     accidentally altered by a crashing application, a special timed
  52:c:\msys64\mingw64\avr\include\avr\wdt.h ****     sequence is required in order to change it.  The macros within
  53:c:\msys64\mingw64\avr\include\avr\wdt.h ****     this header file handle the required sequence automatically
  54:c:\msys64\mingw64\avr\include\avr\wdt.h ****     before changing any value.  Interrupts will be disabled during
  55:c:\msys64\mingw64\avr\include\avr\wdt.h ****     the manipulation.
  56:c:\msys64\mingw64\avr\include\avr\wdt.h **** 
  57:c:\msys64\mingw64\avr\include\avr\wdt.h ****     \note Depending on the fuse configuration of the particular
  58:c:\msys64\mingw64\avr\include\avr\wdt.h ****     device, further restrictions might apply, in particular it might
  59:c:\msys64\mingw64\avr\include\avr\wdt.h ****     be disallowed to turn off the watchdog timer.
  60:c:\msys64\mingw64\avr\include\avr\wdt.h **** 
  61:c:\msys64\mingw64\avr\include\avr\wdt.h ****     Note that for newer devices (ATmega88 and newer, effectively any
  62:c:\msys64\mingw64\avr\include\avr\wdt.h ****     AVR that has the option to also generate interrupts), the watchdog
  63:c:\msys64\mingw64\avr\include\avr\wdt.h ****     timer remains active even after a system reset (except a power-on
  64:c:\msys64\mingw64\avr\include\avr\wdt.h ****     condition), using the fastest prescaler value (approximately 15
  65:c:\msys64\mingw64\avr\include\avr\wdt.h ****     ms).  It is therefore required to turn off the watchdog early
  66:c:\msys64\mingw64\avr\include\avr\wdt.h ****     during program startup, the datasheet recommends a sequence like
  67:c:\msys64\mingw64\avr\include\avr\wdt.h ****     the following:
  68:c:\msys64\mingw64\avr\include\avr\wdt.h **** 
  69:c:\msys64\mingw64\avr\include\avr\wdt.h ****     \code
  70:c:\msys64\mingw64\avr\include\avr\wdt.h ****     #include <stdint.h>
  71:c:\msys64\mingw64\avr\include\avr\wdt.h ****     #include <avr/wdt.h>
  72:c:\msys64\mingw64\avr\include\avr\wdt.h **** 
  73:c:\msys64\mingw64\avr\include\avr\wdt.h ****     uint8_t mcusr_mirror __attribute__ ((section (".noinit")));
  74:c:\msys64\mingw64\avr\include\avr\wdt.h **** 
  75:c:\msys64\mingw64\avr\include\avr\wdt.h ****     void get_mcusr(void) \
  76:c:\msys64\mingw64\avr\include\avr\wdt.h ****       __attribute__((naked)) \
  77:c:\msys64\mingw64\avr\include\avr\wdt.h ****       __attribute__((section(".init3")));
  78:c:\msys64\mingw64\avr\include\avr\wdt.h ****     void get_mcusr(void)
  79:c:\msys64\mingw64\avr\include\avr\wdt.h ****     {
  80:c:\msys64\mingw64\avr\include\avr\wdt.h ****       mcusr_mirror = MCUSR;
  81:c:\msys64\mingw64\avr\include\avr\wdt.h ****       MCUSR = 0;
  82:c:\msys64\mingw64\avr\include\avr\wdt.h ****       wdt_disable();
  83:c:\msys64\mingw64\avr\include\avr\wdt.h ****     }
  84:c:\msys64\mingw64\avr\include\avr\wdt.h ****     \endcode
  85:c:\msys64\mingw64\avr\include\avr\wdt.h **** 
  86:c:\msys64\mingw64\avr\include\avr\wdt.h ****     Saving the value of MCUSR in \c mcusr_mirror is only needed if the
  87:c:\msys64\mingw64\avr\include\avr\wdt.h ****     application later wants to examine the reset source, but in particular, 
  88:c:\msys64\mingw64\avr\include\avr\wdt.h ****     clearing the watchdog reset flag before disabling the
  89:c:\msys64\mingw64\avr\include\avr\wdt.h ****     watchdog is required, according to the datasheet.
  90:c:\msys64\mingw64\avr\include\avr\wdt.h **** */
  91:c:\msys64\mingw64\avr\include\avr\wdt.h **** 
  92:c:\msys64\mingw64\avr\include\avr\wdt.h **** /**
  93:c:\msys64\mingw64\avr\include\avr\wdt.h ****    \ingroup avr_watchdog
  94:c:\msys64\mingw64\avr\include\avr\wdt.h ****    Reset the watchdog timer.  When the watchdog timer is enabled,
  95:c:\msys64\mingw64\avr\include\avr\wdt.h ****    a call to this instruction is required before the timer expires,
  96:c:\msys64\mingw64\avr\include\avr\wdt.h ****    otherwise a watchdog-initiated device reset will occur. 
  97:c:\msys64\mingw64\avr\include\avr\wdt.h **** */
  98:c:\msys64\mingw64\avr\include\avr\wdt.h **** 
  99:c:\msys64\mingw64\avr\include\avr\wdt.h **** #define wdt_reset() __asm__ __volatile__ ("wdr")
 100:c:\msys64\mingw64\avr\include\avr\wdt.h **** 
 101:c:\msys64\mingw64\avr\include\avr\wdt.h **** #ifndef __DOXYGEN__
 102:c:\msys64\mingw64\avr\include\avr\wdt.h **** 
 103:c:\msys64\mingw64\avr\include\avr\wdt.h **** #if defined(WDP3)
 104:c:\msys64\mingw64\avr\include\avr\wdt.h **** # define _WD_PS3_MASK       _BV(WDP3)
 105:c:\msys64\mingw64\avr\include\avr\wdt.h **** #else
 106:c:\msys64\mingw64\avr\include\avr\wdt.h **** # define _WD_PS3_MASK       0x00
 107:c:\msys64\mingw64\avr\include\avr\wdt.h **** #endif
 108:c:\msys64\mingw64\avr\include\avr\wdt.h **** 
 109:c:\msys64\mingw64\avr\include\avr\wdt.h **** #if defined(WDTCSR)
 110:c:\msys64\mingw64\avr\include\avr\wdt.h **** #  define _WD_CONTROL_REG     WDTCSR
 111:c:\msys64\mingw64\avr\include\avr\wdt.h **** #elif defined(WDTCR)
 112:c:\msys64\mingw64\avr\include\avr\wdt.h **** #  define _WD_CONTROL_REG     WDTCR
 113:c:\msys64\mingw64\avr\include\avr\wdt.h **** #else
 114:c:\msys64\mingw64\avr\include\avr\wdt.h **** #  define _WD_CONTROL_REG     WDT
 115:c:\msys64\mingw64\avr\include\avr\wdt.h **** #endif
 116:c:\msys64\mingw64\avr\include\avr\wdt.h **** 
 117:c:\msys64\mingw64\avr\include\avr\wdt.h **** #if defined(WDTOE)
 118:c:\msys64\mingw64\avr\include\avr\wdt.h **** #define _WD_CHANGE_BIT      WDTOE
 119:c:\msys64\mingw64\avr\include\avr\wdt.h **** #else
 120:c:\msys64\mingw64\avr\include\avr\wdt.h **** #define _WD_CHANGE_BIT      WDCE
 121:c:\msys64\mingw64\avr\include\avr\wdt.h **** #endif
 122:c:\msys64\mingw64\avr\include\avr\wdt.h **** 
 123:c:\msys64\mingw64\avr\include\avr\wdt.h **** #endif	/* !__DOXYGEN__ */
 124:c:\msys64\mingw64\avr\include\avr\wdt.h **** 
 125:c:\msys64\mingw64\avr\include\avr\wdt.h **** 
 126:c:\msys64\mingw64\avr\include\avr\wdt.h **** /**
 127:c:\msys64\mingw64\avr\include\avr\wdt.h ****    \ingroup avr_watchdog
 128:c:\msys64\mingw64\avr\include\avr\wdt.h ****    Enable the watchdog timer, configuring it for expiry after
 129:c:\msys64\mingw64\avr\include\avr\wdt.h ****    \c timeout (which is a combination of the \c WDP0 through
 130:c:\msys64\mingw64\avr\include\avr\wdt.h ****    \c WDP2 bits to write into the \c WDTCR register; For those devices 
 131:c:\msys64\mingw64\avr\include\avr\wdt.h ****    that have a \c WDTCSR register, it uses the combination of the \c WDP0 
 132:c:\msys64\mingw64\avr\include\avr\wdt.h ****    through \c WDP3 bits).
 133:c:\msys64\mingw64\avr\include\avr\wdt.h **** 
 134:c:\msys64\mingw64\avr\include\avr\wdt.h ****    See also the symbolic constants \c WDTO_15MS et al.
 135:c:\msys64\mingw64\avr\include\avr\wdt.h **** */
 136:c:\msys64\mingw64\avr\include\avr\wdt.h **** 
 137:c:\msys64\mingw64\avr\include\avr\wdt.h **** 
 138:c:\msys64\mingw64\avr\include\avr\wdt.h **** #if defined(__AVR_XMEGA__)
 139:c:\msys64\mingw64\avr\include\avr\wdt.h **** 
 140:c:\msys64\mingw64\avr\include\avr\wdt.h **** /*
 141:c:\msys64\mingw64\avr\include\avr\wdt.h ****    wdt_enable(timeout) for xmega devices
 142:c:\msys64\mingw64\avr\include\avr\wdt.h **** ** write signature (CCP_IOREG_gc) that enables change of protected I/O
 143:c:\msys64\mingw64\avr\include\avr\wdt.h ****    registers to the CCP register
 144:c:\msys64\mingw64\avr\include\avr\wdt.h **** ** At the same time,
 145:c:\msys64\mingw64\avr\include\avr\wdt.h ****    1) set WDT change enable (WDT_CEN_bm)
 146:c:\msys64\mingw64\avr\include\avr\wdt.h ****    2) enable WDT (WDT_ENABLE_bm)
 147:c:\msys64\mingw64\avr\include\avr\wdt.h ****    3) set timeout (timeout)
 148:c:\msys64\mingw64\avr\include\avr\wdt.h **** ** Synchronization starts when ENABLE bit of WDT is set. So, wait till it
 149:c:\msys64\mingw64\avr\include\avr\wdt.h ****    finishes (SYNCBUSY of STATUS register is automatically cleared after the
 150:c:\msys64\mingw64\avr\include\avr\wdt.h ****    sync is finished).
 151:c:\msys64\mingw64\avr\include\avr\wdt.h **** */
 152:c:\msys64\mingw64\avr\include\avr\wdt.h **** #define wdt_enable(timeout) \
 153:c:\msys64\mingw64\avr\include\avr\wdt.h **** do { \
 154:c:\msys64\mingw64\avr\include\avr\wdt.h **** uint8_t temp; \
 155:c:\msys64\mingw64\avr\include\avr\wdt.h **** __asm__ __volatile__ (         \
 156:c:\msys64\mingw64\avr\include\avr\wdt.h ****     "in __tmp_reg__, %[rampd]"              "\n\t" \
 157:c:\msys64\mingw64\avr\include\avr\wdt.h ****     "out %[rampd], __zero_reg__"            "\n\t" \
 158:c:\msys64\mingw64\avr\include\avr\wdt.h ****     "out %[ccp_reg], %[ioreg_cen_mask]"     "\n\t" \
 159:c:\msys64\mingw64\avr\include\avr\wdt.h ****     "sts %[wdt_reg], %[wdt_enable_timeout]" "\n\t" \
 160:c:\msys64\mingw64\avr\include\avr\wdt.h ****     "1:lds %[tmp], %[wdt_status_reg]"       "\n\t" \
 161:c:\msys64\mingw64\avr\include\avr\wdt.h ****     "sbrc %[tmp], %[wdt_syncbusy_bit]"      "\n\t" \
 162:c:\msys64\mingw64\avr\include\avr\wdt.h ****     "rjmp 1b"                               "\n\t" \
 163:c:\msys64\mingw64\avr\include\avr\wdt.h ****     "out %[rampd], __tmp_reg__"             "\n\t" \
 164:c:\msys64\mingw64\avr\include\avr\wdt.h ****     : [tmp]                "=r" (temp) \
 165:c:\msys64\mingw64\avr\include\avr\wdt.h ****     : [rampd]              "I" (_SFR_IO_ADDR(RAMPD)),      \
 166:c:\msys64\mingw64\avr\include\avr\wdt.h ****       [ccp_reg]            "I" (_SFR_IO_ADDR(CCP)),        \
 167:c:\msys64\mingw64\avr\include\avr\wdt.h ****       [ioreg_cen_mask]     "r" ((uint8_t)CCP_IOREG_gc),     \
 168:c:\msys64\mingw64\avr\include\avr\wdt.h ****       [wdt_reg]            "n" (_SFR_MEM_ADDR(WDT_CTRL)),   \
 169:c:\msys64\mingw64\avr\include\avr\wdt.h ****       [wdt_enable_timeout] "r" ((uint8_t)(WDT_CEN_bm | WDT_ENABLE_bm | timeout)), \
 170:c:\msys64\mingw64\avr\include\avr\wdt.h ****       [wdt_status_reg]     "n" (_SFR_MEM_ADDR(WDT_STATUS)), \
 171:c:\msys64\mingw64\avr\include\avr\wdt.h ****       [wdt_syncbusy_bit]   "I" (WDT_SYNCBUSY_bm)            \
 172:c:\msys64\mingw64\avr\include\avr\wdt.h ****     : "r0" \
 173:c:\msys64\mingw64\avr\include\avr\wdt.h **** ); \
 174:c:\msys64\mingw64\avr\include\avr\wdt.h **** } while(0)
 175:c:\msys64\mingw64\avr\include\avr\wdt.h **** 
 176:c:\msys64\mingw64\avr\include\avr\wdt.h **** #define wdt_disable() \
 177:c:\msys64\mingw64\avr\include\avr\wdt.h **** __asm__ __volatile__ (  \
 178:c:\msys64\mingw64\avr\include\avr\wdt.h ****     "in __tmp_reg__, %[rampd]"          "\n\t" \
 179:c:\msys64\mingw64\avr\include\avr\wdt.h ****     "out %[rampd], __zero_reg__"        "\n\t" \
 180:c:\msys64\mingw64\avr\include\avr\wdt.h ****     "out %[ccp_reg], %[ioreg_cen_mask]" "\n\t" \
 181:c:\msys64\mingw64\avr\include\avr\wdt.h ****     "sts %[wdt_reg], %[disable_mask]"   "\n\t" \
 182:c:\msys64\mingw64\avr\include\avr\wdt.h ****     "out %[rampd], __tmp_reg__"         "\n\t" \
 183:c:\msys64\mingw64\avr\include\avr\wdt.h ****     : \
 184:c:\msys64\mingw64\avr\include\avr\wdt.h ****     : [rampd]             "I" (_SFR_IO_ADDR(RAMPD)),    \
 185:c:\msys64\mingw64\avr\include\avr\wdt.h ****       [ccp_reg]           "I" (_SFR_IO_ADDR(CCP)),      \
 186:c:\msys64\mingw64\avr\include\avr\wdt.h ****       [ioreg_cen_mask]    "r" ((uint8_t)CCP_IOREG_gc),   \
 187:c:\msys64\mingw64\avr\include\avr\wdt.h ****       [wdt_reg]           "n" (_SFR_MEM_ADDR(WDT_CTRL)), \
 188:c:\msys64\mingw64\avr\include\avr\wdt.h ****       [disable_mask]      "r" ((uint8_t)((~WDT_ENABLE_bm) | WDT_CEN_bm)) \
 189:c:\msys64\mingw64\avr\include\avr\wdt.h ****     : "r0" \
 190:c:\msys64\mingw64\avr\include\avr\wdt.h **** );
 191:c:\msys64\mingw64\avr\include\avr\wdt.h **** 
 192:c:\msys64\mingw64\avr\include\avr\wdt.h **** #elif defined(__AVR_TINY__)
 193:c:\msys64\mingw64\avr\include\avr\wdt.h **** 
 194:c:\msys64\mingw64\avr\include\avr\wdt.h **** #define wdt_enable(value) \
 195:c:\msys64\mingw64\avr\include\avr\wdt.h **** __asm__ __volatile__ ( \
 196:c:\msys64\mingw64\avr\include\avr\wdt.h ****     "in __tmp_reg__,__SREG__" "\n\t"  \
 197:c:\msys64\mingw64\avr\include\avr\wdt.h ****     "cli" "\n\t"  \
 198:c:\msys64\mingw64\avr\include\avr\wdt.h ****     "wdr" "\n\t"  \
 199:c:\msys64\mingw64\avr\include\avr\wdt.h ****     "out %[CCPADDRESS],%[SIGNATURE]" "\n\t"  \
 200:c:\msys64\mingw64\avr\include\avr\wdt.h ****     "out %[WDTREG],%[WDVALUE]" "\n\t"  \
 201:c:\msys64\mingw64\avr\include\avr\wdt.h ****     "out __SREG__,__tmp_reg__" "\n\t"  \
 202:c:\msys64\mingw64\avr\include\avr\wdt.h ****     : /* no outputs */  \
 203:c:\msys64\mingw64\avr\include\avr\wdt.h ****     : [CCPADDRESS] "I" (_SFR_IO_ADDR(CCP)),  \
 204:c:\msys64\mingw64\avr\include\avr\wdt.h ****       [SIGNATURE] "r" ((uint8_t)0xD8), \
 205:c:\msys64\mingw64\avr\include\avr\wdt.h ****       [WDTREG] "I" (_SFR_IO_ADDR(_WD_CONTROL_REG)), \
 206:c:\msys64\mingw64\avr\include\avr\wdt.h ****       [WDVALUE] "r" ((uint8_t)((value & 0x08 ? _WD_PS3_MASK : 0x00) \
 207:c:\msys64\mingw64\avr\include\avr\wdt.h ****       | _BV(WDE) | (value & 0x07) )) \
 208:c:\msys64\mingw64\avr\include\avr\wdt.h ****     : "r16" \
 209:c:\msys64\mingw64\avr\include\avr\wdt.h **** )
 210:c:\msys64\mingw64\avr\include\avr\wdt.h **** 
 211:c:\msys64\mingw64\avr\include\avr\wdt.h **** #define wdt_disable() \
 212:c:\msys64\mingw64\avr\include\avr\wdt.h **** do { \
 213:c:\msys64\mingw64\avr\include\avr\wdt.h **** uint8_t temp_wd; \
 214:c:\msys64\mingw64\avr\include\avr\wdt.h **** __asm__ __volatile__ ( \
 215:c:\msys64\mingw64\avr\include\avr\wdt.h ****     "in __tmp_reg__,__SREG__" "\n\t"  \
 216:c:\msys64\mingw64\avr\include\avr\wdt.h ****     "cli" "\n\t"  \
 217:c:\msys64\mingw64\avr\include\avr\wdt.h ****     "wdr" "\n\t"  \
 218:c:\msys64\mingw64\avr\include\avr\wdt.h ****     "out %[CCPADDRESS],%[SIGNATURE]" "\n\t"  \
 219:c:\msys64\mingw64\avr\include\avr\wdt.h ****     "in  %[TEMP_WD],%[WDTREG]" "\n\t" \
 220:c:\msys64\mingw64\avr\include\avr\wdt.h ****     "cbr %[TEMP_WD],%[WDVALUE]" "\n\t" \
 221:c:\msys64\mingw64\avr\include\avr\wdt.h ****     "out %[WDTREG],%[TEMP_WD]" "\n\t" \
 222:c:\msys64\mingw64\avr\include\avr\wdt.h ****     "out __SREG__,__tmp_reg__" "\n\t" \
 223:c:\msys64\mingw64\avr\include\avr\wdt.h ****     : /*no output */ \
 224:c:\msys64\mingw64\avr\include\avr\wdt.h ****     : [CCPADDRESS] "I" (_SFR_IO_ADDR(CCP)), \
 225:c:\msys64\mingw64\avr\include\avr\wdt.h ****       [SIGNATURE] "r" ((uint8_t)0xD8), \
 226:c:\msys64\mingw64\avr\include\avr\wdt.h ****       [WDTREG] "I" (_SFR_IO_ADDR(_WD_CONTROL_REG)), \
 227:c:\msys64\mingw64\avr\include\avr\wdt.h ****       [TEMP_WD] "d" (temp_wd), \
 228:c:\msys64\mingw64\avr\include\avr\wdt.h ****       [WDVALUE] "n" (1 << WDE) \
 229:c:\msys64\mingw64\avr\include\avr\wdt.h ****     : "r16" \
 230:c:\msys64\mingw64\avr\include\avr\wdt.h **** ); \
 231:c:\msys64\mingw64\avr\include\avr\wdt.h **** }while(0)
 232:c:\msys64\mingw64\avr\include\avr\wdt.h **** 
 233:c:\msys64\mingw64\avr\include\avr\wdt.h **** #elif defined(CCP)
 234:c:\msys64\mingw64\avr\include\avr\wdt.h **** 
 235:c:\msys64\mingw64\avr\include\avr\wdt.h **** static __inline__
 236:c:\msys64\mingw64\avr\include\avr\wdt.h **** __attribute__ ((__always_inline__))
 237:c:\msys64\mingw64\avr\include\avr\wdt.h **** void wdt_enable (const uint8_t value)
 238:c:\msys64\mingw64\avr\include\avr\wdt.h **** {
 239:c:\msys64\mingw64\avr\include\avr\wdt.h **** 	if (!_SFR_IO_REG_P (CCP) && !_SFR_IO_REG_P (_WD_CONTROL_REG))
 240:c:\msys64\mingw64\avr\include\avr\wdt.h **** 	{
 241:c:\msys64\mingw64\avr\include\avr\wdt.h **** 		__asm__ __volatile__ (
 242:c:\msys64\mingw64\avr\include\avr\wdt.h **** 			"in __tmp_reg__,__SREG__" "\n\t"
 243:c:\msys64\mingw64\avr\include\avr\wdt.h **** 			"cli" "\n\t"
 244:c:\msys64\mingw64\avr\include\avr\wdt.h **** 			"wdr" "\n\t"
 245:c:\msys64\mingw64\avr\include\avr\wdt.h **** 			"sts %[CCPADDRESS],%[SIGNATURE]" "\n\t"
 246:c:\msys64\mingw64\avr\include\avr\wdt.h **** 			"sts %[WDTREG],%[WDVALUE]" "\n\t"
 247:c:\msys64\mingw64\avr\include\avr\wdt.h **** 			"out __SREG__,__tmp_reg__" "\n\t"
 248:c:\msys64\mingw64\avr\include\avr\wdt.h **** 			: /* no outputs */
 249:c:\msys64\mingw64\avr\include\avr\wdt.h **** 			: [CCPADDRESS] "n" (_SFR_MEM_ADDR(CCP)),
 250:c:\msys64\mingw64\avr\include\avr\wdt.h **** 			[SIGNATURE] "r" ((uint8_t)0xD8),
 251:c:\msys64\mingw64\avr\include\avr\wdt.h **** 			[WDTREG] "n" (_SFR_MEM_ADDR(_WD_CONTROL_REG)),
 252:c:\msys64\mingw64\avr\include\avr\wdt.h **** 			[WDVALUE] "r" ((uint8_t)((value & 0x08 ? _WD_PS3_MASK : 0x00)
 253:c:\msys64\mingw64\avr\include\avr\wdt.h **** 				| _BV(WDE) | (value & 0x07) ))
 254:c:\msys64\mingw64\avr\include\avr\wdt.h **** 			: "r0"
 255:c:\msys64\mingw64\avr\include\avr\wdt.h **** 			);
 256:c:\msys64\mingw64\avr\include\avr\wdt.h **** 	}
 257:c:\msys64\mingw64\avr\include\avr\wdt.h **** 	else if (!_SFR_IO_REG_P (CCP) && _SFR_IO_REG_P (_WD_CONTROL_REG))
 258:c:\msys64\mingw64\avr\include\avr\wdt.h **** 	{
 259:c:\msys64\mingw64\avr\include\avr\wdt.h **** 		__asm__ __volatile__ (
 260:c:\msys64\mingw64\avr\include\avr\wdt.h **** 			"in __tmp_reg__,__SREG__" "\n\t"
 261:c:\msys64\mingw64\avr\include\avr\wdt.h **** 			"cli" "\n\t"
 262:c:\msys64\mingw64\avr\include\avr\wdt.h **** 			"wdr" "\n\t"
 263:c:\msys64\mingw64\avr\include\avr\wdt.h **** 			"sts %[CCPADDRESS],%[SIGNATURE]" "\n\t"
 264:c:\msys64\mingw64\avr\include\avr\wdt.h **** 			"out %[WDTREG],%[WDVALUE]" "\n\t"
 265:c:\msys64\mingw64\avr\include\avr\wdt.h **** 			"out __SREG__,__tmp_reg__" "\n\t"
 266:c:\msys64\mingw64\avr\include\avr\wdt.h **** 			: /* no outputs */
 267:c:\msys64\mingw64\avr\include\avr\wdt.h **** 			: [CCPADDRESS] "n" (_SFR_MEM_ADDR(CCP)),
 268:c:\msys64\mingw64\avr\include\avr\wdt.h **** 			[SIGNATURE] "r" ((uint8_t)0xD8),
 269:c:\msys64\mingw64\avr\include\avr\wdt.h **** 			[WDTREG] "I" (_SFR_IO_ADDR(_WD_CONTROL_REG)),
 270:c:\msys64\mingw64\avr\include\avr\wdt.h **** 			[WDVALUE] "r" ((uint8_t)((value & 0x08 ? _WD_PS3_MASK : 0x00)
 271:c:\msys64\mingw64\avr\include\avr\wdt.h **** 				| _BV(WDE) | (value & 0x07) ))
 272:c:\msys64\mingw64\avr\include\avr\wdt.h **** 			: "r0"
 273:c:\msys64\mingw64\avr\include\avr\wdt.h **** 			);
 274:c:\msys64\mingw64\avr\include\avr\wdt.h **** 	}
 275:c:\msys64\mingw64\avr\include\avr\wdt.h **** 	else if (_SFR_IO_REG_P (CCP) && !_SFR_IO_REG_P (_WD_CONTROL_REG))
 276:c:\msys64\mingw64\avr\include\avr\wdt.h **** 	{
 277:c:\msys64\mingw64\avr\include\avr\wdt.h **** 		__asm__ __volatile__ (
 278:c:\msys64\mingw64\avr\include\avr\wdt.h **** 			"in __tmp_reg__,__SREG__" "\n\t"
 279:c:\msys64\mingw64\avr\include\avr\wdt.h **** 			"cli" "\n\t"
 280:c:\msys64\mingw64\avr\include\avr\wdt.h **** 			"wdr" "\n\t"
 281:c:\msys64\mingw64\avr\include\avr\wdt.h **** 			"out %[CCPADDRESS],%[SIGNATURE]" "\n\t"
 282:c:\msys64\mingw64\avr\include\avr\wdt.h **** 			"sts %[WDTREG],%[WDVALUE]" "\n\t"
 283:c:\msys64\mingw64\avr\include\avr\wdt.h **** 			"out __SREG__,__tmp_reg__" "\n\t"
 284:c:\msys64\mingw64\avr\include\avr\wdt.h **** 			: /* no outputs */
 285:c:\msys64\mingw64\avr\include\avr\wdt.h **** 			: [CCPADDRESS] "I" (_SFR_IO_ADDR(CCP)),
 286:c:\msys64\mingw64\avr\include\avr\wdt.h **** 			[SIGNATURE] "r" ((uint8_t)0xD8),
 287:c:\msys64\mingw64\avr\include\avr\wdt.h **** 			[WDTREG] "n" (_SFR_MEM_ADDR(_WD_CONTROL_REG)),
 288:c:\msys64\mingw64\avr\include\avr\wdt.h **** 			[WDVALUE] "r" ((uint8_t)((value & 0x08 ? _WD_PS3_MASK : 0x00)
 289:c:\msys64\mingw64\avr\include\avr\wdt.h **** 				| _BV(WDE) | (value & 0x07) ))
 290:c:\msys64\mingw64\avr\include\avr\wdt.h **** 			: "r0"
 291:c:\msys64\mingw64\avr\include\avr\wdt.h **** 			);
 292:c:\msys64\mingw64\avr\include\avr\wdt.h **** 	}
 293:c:\msys64\mingw64\avr\include\avr\wdt.h **** 	else
 294:c:\msys64\mingw64\avr\include\avr\wdt.h ****  	{
 295:c:\msys64\mingw64\avr\include\avr\wdt.h **** 		__asm__ __volatile__ (
 296:c:\msys64\mingw64\avr\include\avr\wdt.h **** 			"in __tmp_reg__,__SREG__" "\n\t"
 297:c:\msys64\mingw64\avr\include\avr\wdt.h **** 			"cli" "\n\t"
 298:c:\msys64\mingw64\avr\include\avr\wdt.h **** 			"wdr" "\n\t"
 299:c:\msys64\mingw64\avr\include\avr\wdt.h **** 			"out %[CCPADDRESS],%[SIGNATURE]" "\n\t"
 300:c:\msys64\mingw64\avr\include\avr\wdt.h **** 			"out %[WDTREG],%[WDVALUE]" "\n\t"
 301:c:\msys64\mingw64\avr\include\avr\wdt.h **** 			"out __SREG__,__tmp_reg__" "\n\t"
 302:c:\msys64\mingw64\avr\include\avr\wdt.h **** 			: /* no outputs */
 303:c:\msys64\mingw64\avr\include\avr\wdt.h **** 			: [CCPADDRESS] "I" (_SFR_IO_ADDR(CCP)),
 304:c:\msys64\mingw64\avr\include\avr\wdt.h **** 			[SIGNATURE] "r" ((uint8_t)0xD8),
 305:c:\msys64\mingw64\avr\include\avr\wdt.h **** 			[WDTREG] "I" (_SFR_IO_ADDR(_WD_CONTROL_REG)),
 306:c:\msys64\mingw64\avr\include\avr\wdt.h **** 			[WDVALUE] "r" ((uint8_t)((value & 0x08 ? _WD_PS3_MASK : 0x00)
 307:c:\msys64\mingw64\avr\include\avr\wdt.h **** 				| _BV(WDE) | (value & 0x07) ))
 308:c:\msys64\mingw64\avr\include\avr\wdt.h **** 			: "r0"
 309:c:\msys64\mingw64\avr\include\avr\wdt.h **** 			);
 310:c:\msys64\mingw64\avr\include\avr\wdt.h **** 	}
 311:c:\msys64\mingw64\avr\include\avr\wdt.h **** }
 312:c:\msys64\mingw64\avr\include\avr\wdt.h **** 
 313:c:\msys64\mingw64\avr\include\avr\wdt.h **** static __inline__
 314:c:\msys64\mingw64\avr\include\avr\wdt.h **** __attribute__ ((__always_inline__))
 315:c:\msys64\mingw64\avr\include\avr\wdt.h **** void wdt_disable (void)
 316:c:\msys64\mingw64\avr\include\avr\wdt.h **** {
 317:c:\msys64\mingw64\avr\include\avr\wdt.h **** 	if (!_SFR_IO_REG_P (CCP) && !_SFR_IO_REG_P(_WD_CONTROL_REG))
 318:c:\msys64\mingw64\avr\include\avr\wdt.h **** 	{
 319:c:\msys64\mingw64\avr\include\avr\wdt.h ****         uint8_t temp_wd;
 320:c:\msys64\mingw64\avr\include\avr\wdt.h ****         __asm__ __volatile__ (
 321:c:\msys64\mingw64\avr\include\avr\wdt.h **** 				"in __tmp_reg__,__SREG__" "\n\t"
 322:c:\msys64\mingw64\avr\include\avr\wdt.h **** 				"cli" "\n\t"
 323:c:\msys64\mingw64\avr\include\avr\wdt.h **** 				"wdr" "\n\t"
 324:c:\msys64\mingw64\avr\include\avr\wdt.h **** 				"sts %[CCPADDRESS],%[SIGNATURE]" "\n\t"
 325:c:\msys64\mingw64\avr\include\avr\wdt.h **** 				"lds %[TEMP_WD],%[WDTREG]" "\n\t"
 326:c:\msys64\mingw64\avr\include\avr\wdt.h **** 				"cbr %[TEMP_WD],%[WDVALUE]" "\n\t"
 327:c:\msys64\mingw64\avr\include\avr\wdt.h **** 				"sts %[WDTREG],%[TEMP_WD]" "\n\t"
 328:c:\msys64\mingw64\avr\include\avr\wdt.h **** 				"out __SREG__,__tmp_reg__" "\n\t"
 329:c:\msys64\mingw64\avr\include\avr\wdt.h **** 				: /*no output */
 330:c:\msys64\mingw64\avr\include\avr\wdt.h **** 				: [CCPADDRESS] "n" (_SFR_MEM_ADDR(CCP)),
 331:c:\msys64\mingw64\avr\include\avr\wdt.h **** 				[SIGNATURE] "r" ((uint8_t)0xD8),
 332:c:\msys64\mingw64\avr\include\avr\wdt.h **** 				[WDTREG] "n" (_SFR_MEM_ADDR(_WD_CONTROL_REG)),
 333:c:\msys64\mingw64\avr\include\avr\wdt.h **** 				[TEMP_WD] "d" (temp_wd),
 334:c:\msys64\mingw64\avr\include\avr\wdt.h **** 				[WDVALUE] "n" (1 << WDE)
 335:c:\msys64\mingw64\avr\include\avr\wdt.h **** 				: "r0"
 336:c:\msys64\mingw64\avr\include\avr\wdt.h **** 				);
 337:c:\msys64\mingw64\avr\include\avr\wdt.h **** 	}
 338:c:\msys64\mingw64\avr\include\avr\wdt.h **** 	else if (!_SFR_IO_REG_P (CCP) && _SFR_IO_REG_P(_WD_CONTROL_REG))
 339:c:\msys64\mingw64\avr\include\avr\wdt.h **** 	{
 340:c:\msys64\mingw64\avr\include\avr\wdt.h ****         uint8_t temp_wd;
 341:c:\msys64\mingw64\avr\include\avr\wdt.h ****         __asm__ __volatile__ (
 342:c:\msys64\mingw64\avr\include\avr\wdt.h **** 				"in __tmp_reg__,__SREG__" "\n\t"
 343:c:\msys64\mingw64\avr\include\avr\wdt.h **** 				"cli" "\n\t"
 344:c:\msys64\mingw64\avr\include\avr\wdt.h **** 				"wdr" "\n\t"
 345:c:\msys64\mingw64\avr\include\avr\wdt.h **** 				"sts %[CCPADDRESS],%[SIGNATURE]" "\n\t"
 346:c:\msys64\mingw64\avr\include\avr\wdt.h **** 				"in %[TEMP_WD],%[WDTREG]" "\n\t"
 347:c:\msys64\mingw64\avr\include\avr\wdt.h **** 				"cbr %[TEMP_WD],%[WDVALUE]" "\n\t"
 348:c:\msys64\mingw64\avr\include\avr\wdt.h **** 				"out %[WDTREG],%[TEMP_WD]" "\n\t"
 349:c:\msys64\mingw64\avr\include\avr\wdt.h **** 				"out __SREG__,__tmp_reg__" "\n\t"
 350:c:\msys64\mingw64\avr\include\avr\wdt.h **** 				: /*no output */
 351:c:\msys64\mingw64\avr\include\avr\wdt.h **** 				: [CCPADDRESS] "n" (_SFR_MEM_ADDR(CCP)),
 352:c:\msys64\mingw64\avr\include\avr\wdt.h **** 				[SIGNATURE] "r" ((uint8_t)0xD8),
 353:c:\msys64\mingw64\avr\include\avr\wdt.h **** 				[WDTREG] "I" (_SFR_IO_ADDR(_WD_CONTROL_REG)),
 354:c:\msys64\mingw64\avr\include\avr\wdt.h **** 				[TEMP_WD] "d" (temp_wd),
 355:c:\msys64\mingw64\avr\include\avr\wdt.h **** 				[WDVALUE] "n" (1 << WDE)
 356:c:\msys64\mingw64\avr\include\avr\wdt.h **** 				: "r0"
 357:c:\msys64\mingw64\avr\include\avr\wdt.h **** 				);
 358:c:\msys64\mingw64\avr\include\avr\wdt.h **** 	}
 359:c:\msys64\mingw64\avr\include\avr\wdt.h **** 	else if (_SFR_IO_REG_P (CCP) && !_SFR_IO_REG_P(_WD_CONTROL_REG))
 360:c:\msys64\mingw64\avr\include\avr\wdt.h **** 	{
 361:c:\msys64\mingw64\avr\include\avr\wdt.h ****         uint8_t temp_wd;
 362:c:\msys64\mingw64\avr\include\avr\wdt.h ****         __asm__ __volatile__ (
 363:c:\msys64\mingw64\avr\include\avr\wdt.h **** 				"in __tmp_reg__,__SREG__" "\n\t"
 364:c:\msys64\mingw64\avr\include\avr\wdt.h **** 				"cli" "\n\t"
 365:c:\msys64\mingw64\avr\include\avr\wdt.h **** 				"wdr" "\n\t"
 366:c:\msys64\mingw64\avr\include\avr\wdt.h **** 				"out %[CCPADDRESS],%[SIGNATURE]" "\n\t"
 367:c:\msys64\mingw64\avr\include\avr\wdt.h **** 				"lds %[TEMP_WD],%[WDTREG]" "\n\t"
 368:c:\msys64\mingw64\avr\include\avr\wdt.h **** 				"cbr %[TEMP_WD],%[WDVALUE]" "\n\t"
 369:c:\msys64\mingw64\avr\include\avr\wdt.h **** 				"sts %[WDTREG],%[TEMP_WD]" "\n\t"
 370:c:\msys64\mingw64\avr\include\avr\wdt.h **** 				"out __SREG__,__tmp_reg__" "\n\t"
 371:c:\msys64\mingw64\avr\include\avr\wdt.h **** 				: /*no output */
 372:c:\msys64\mingw64\avr\include\avr\wdt.h **** 				: [CCPADDRESS] "I" (_SFR_IO_ADDR(CCP)),
 373:c:\msys64\mingw64\avr\include\avr\wdt.h **** 				[SIGNATURE] "r" ((uint8_t)0xD8),
 374:c:\msys64\mingw64\avr\include\avr\wdt.h **** 				[WDTREG] "n" (_SFR_MEM_ADDR(_WD_CONTROL_REG)),
 375:c:\msys64\mingw64\avr\include\avr\wdt.h **** 				[TEMP_WD] "d" (temp_wd),
 376:c:\msys64\mingw64\avr\include\avr\wdt.h **** 				[WDVALUE] "n" (1 << WDE)
 377:c:\msys64\mingw64\avr\include\avr\wdt.h **** 				: "r0"
 378:c:\msys64\mingw64\avr\include\avr\wdt.h **** 				);
 379:c:\msys64\mingw64\avr\include\avr\wdt.h **** 	}
 380:c:\msys64\mingw64\avr\include\avr\wdt.h **** 	else
 381:c:\msys64\mingw64\avr\include\avr\wdt.h **** 	{
 382:c:\msys64\mingw64\avr\include\avr\wdt.h ****         uint8_t temp_wd;
 383:c:\msys64\mingw64\avr\include\avr\wdt.h ****         __asm__ __volatile__ (
 384:c:\msys64\mingw64\avr\include\avr\wdt.h **** 				"in __tmp_reg__,__SREG__" "\n\t"
 385:c:\msys64\mingw64\avr\include\avr\wdt.h **** 				"cli" "\n\t"
 386:c:\msys64\mingw64\avr\include\avr\wdt.h **** 				"wdr" "\n\t"
 387:c:\msys64\mingw64\avr\include\avr\wdt.h **** 				"out %[CCPADDRESS],%[SIGNATURE]" "\n\t"
 388:c:\msys64\mingw64\avr\include\avr\wdt.h **** 				"in %[TEMP_WD],%[WDTREG]" "\n\t"
 389:c:\msys64\mingw64\avr\include\avr\wdt.h **** 				"cbr %[TEMP_WD],%[WDVALUE]" "\n\t"
 390:c:\msys64\mingw64\avr\include\avr\wdt.h **** 				"out %[WDTREG],%[TEMP_WD]" "\n\t"
 391:c:\msys64\mingw64\avr\include\avr\wdt.h **** 				"out __SREG__,__tmp_reg__" "\n\t"
 392:c:\msys64\mingw64\avr\include\avr\wdt.h **** 				: /*no output */
 393:c:\msys64\mingw64\avr\include\avr\wdt.h **** 				: [CCPADDRESS] "I" (_SFR_IO_ADDR(CCP)),
 394:c:\msys64\mingw64\avr\include\avr\wdt.h **** 				[SIGNATURE] "r" ((uint8_t)0xD8),
 395:c:\msys64\mingw64\avr\include\avr\wdt.h **** 				[WDTREG] "I" (_SFR_IO_ADDR(_WD_CONTROL_REG)),
 396:c:\msys64\mingw64\avr\include\avr\wdt.h **** 				[TEMP_WD] "d" (temp_wd),
 397:c:\msys64\mingw64\avr\include\avr\wdt.h **** 				[WDVALUE] "n" (1 << WDE)
 398:c:\msys64\mingw64\avr\include\avr\wdt.h **** 				: "r0"
 399:c:\msys64\mingw64\avr\include\avr\wdt.h **** 				);
 400:c:\msys64\mingw64\avr\include\avr\wdt.h **** 	}
 401:c:\msys64\mingw64\avr\include\avr\wdt.h **** }
 402:c:\msys64\mingw64\avr\include\avr\wdt.h **** 
 403:c:\msys64\mingw64\avr\include\avr\wdt.h **** #else
 404:c:\msys64\mingw64\avr\include\avr\wdt.h **** 
 405:c:\msys64\mingw64\avr\include\avr\wdt.h **** static __inline__
 406:c:\msys64\mingw64\avr\include\avr\wdt.h **** __attribute__ ((__always_inline__))
 407:c:\msys64\mingw64\avr\include\avr\wdt.h **** void wdt_enable (const uint8_t value)
 408:c:\msys64\mingw64\avr\include\avr\wdt.h **** {
 409:c:\msys64\mingw64\avr\include\avr\wdt.h **** 	if (_SFR_IO_REG_P (_WD_CONTROL_REG))
 410:c:\msys64\mingw64\avr\include\avr\wdt.h **** 	{
 411:c:\msys64\mingw64\avr\include\avr\wdt.h **** 		__asm__ __volatile__ (
 412:c:\msys64\mingw64\avr\include\avr\wdt.h **** 				"in __tmp_reg__,__SREG__" "\n\t"
 413:c:\msys64\mingw64\avr\include\avr\wdt.h **** 				"cli" "\n\t"
 414:c:\msys64\mingw64\avr\include\avr\wdt.h **** 				"wdr" "\n\t"
 415:c:\msys64\mingw64\avr\include\avr\wdt.h **** 				"out %0, %1" "\n\t"
 416:c:\msys64\mingw64\avr\include\avr\wdt.h **** 				"out __SREG__,__tmp_reg__" "\n\t"
 417:c:\msys64\mingw64\avr\include\avr\wdt.h **** 				"out %0, %2" "\n \t"
 418:c:\msys64\mingw64\avr\include\avr\wdt.h **** 				: /* no outputs */
 419:c:\msys64\mingw64\avr\include\avr\wdt.h **** 				: "I" (_SFR_IO_ADDR(_WD_CONTROL_REG)),
 420:c:\msys64\mingw64\avr\include\avr\wdt.h **** 				"r" ((uint8_t)(_BV(_WD_CHANGE_BIT) | _BV(WDE))),
 421:c:\msys64\mingw64\avr\include\avr\wdt.h **** 				"r" ((uint8_t) ((value & 0x08 ? _WD_PS3_MASK : 0x00) |
 422:c:\msys64\mingw64\avr\include\avr\wdt.h **** 						_BV(WDE) | (value & 0x07)) )
 423:c:\msys64\mingw64\avr\include\avr\wdt.h **** 				: "r0"
 424:c:\msys64\mingw64\avr\include\avr\wdt.h **** 		);
 425:c:\msys64\mingw64\avr\include\avr\wdt.h **** 	}
 426:c:\msys64\mingw64\avr\include\avr\wdt.h **** 	else
 427:c:\msys64\mingw64\avr\include\avr\wdt.h **** 	{
 428:c:\msys64\mingw64\avr\include\avr\wdt.h **** 		__asm__ __volatile__ (
 429:c:\msys64\mingw64\avr\include\avr\wdt.h **** 				"in __tmp_reg__,__SREG__" "\n\t"
 430:c:\msys64\mingw64\avr\include\avr\wdt.h **** 				"cli" "\n\t"
 431:c:\msys64\mingw64\avr\include\avr\wdt.h **** 				"wdr" "\n\t"
 432:c:\msys64\mingw64\avr\include\avr\wdt.h **** 				"sts %0, %1" "\n\t"
 433:c:\msys64\mingw64\avr\include\avr\wdt.h **** 				"out __SREG__,__tmp_reg__" "\n\t"
 434:c:\msys64\mingw64\avr\include\avr\wdt.h **** 				"sts %0, %2" "\n \t"
 435:c:\msys64\mingw64\avr\include\avr\wdt.h **** 				: /* no outputs */
 436:c:\msys64\mingw64\avr\include\avr\wdt.h **** 				: "n" (_SFR_MEM_ADDR(_WD_CONTROL_REG)),
 437:c:\msys64\mingw64\avr\include\avr\wdt.h **** 				"r" ((uint8_t)(_BV(_WD_CHANGE_BIT) | _BV(WDE))),
 438:c:\msys64\mingw64\avr\include\avr\wdt.h **** 				"r" ((uint8_t) ((value & 0x08 ? _WD_PS3_MASK : 0x00) |
 439:c:\msys64\mingw64\avr\include\avr\wdt.h **** 						_BV(WDE) | (value & 0x07)) )
 440:c:\msys64\mingw64\avr\include\avr\wdt.h **** 				: "r0"
 441:c:\msys64\mingw64\avr\include\avr\wdt.h **** 		);
 442:c:\msys64\mingw64\avr\include\avr\wdt.h **** 	}
 443:c:\msys64\mingw64\avr\include\avr\wdt.h **** }
 444:c:\msys64\mingw64\avr\include\avr\wdt.h **** 
 445:c:\msys64\mingw64\avr\include\avr\wdt.h **** static __inline__
 446:c:\msys64\mingw64\avr\include\avr\wdt.h **** __attribute__ ((__always_inline__))
 447:c:\msys64\mingw64\avr\include\avr\wdt.h **** void wdt_disable (void)
 207               		.loc 2 447 6 view .LVU49
 208               	.LBE13:
 209               	.LBE12:
 210               	.LBE11:
 448:c:\msys64\mingw64\avr\include\avr\wdt.h **** {
 449:c:\msys64\mingw64\avr\include\avr\wdt.h **** 	if (_SFR_IO_REG_P (_WD_CONTROL_REG))
 211               		.loc 2 449 2 view .LVU50
 212               	.LBB17:
 213               	.LBB16:
 214               	.LBB15:
 215               	.LBB14:
 450:c:\msys64\mingw64\avr\include\avr\wdt.h **** 	{
 451:c:\msys64\mingw64\avr\include\avr\wdt.h ****         uint8_t register temp_reg;
 452:c:\msys64\mingw64\avr\include\avr\wdt.h **** 		__asm__ __volatile__ (
 453:c:\msys64\mingw64\avr\include\avr\wdt.h **** 				"in __tmp_reg__,__SREG__"    "\n\t"
 454:c:\msys64\mingw64\avr\include\avr\wdt.h **** 				"cli"                        "\n\t"
 455:c:\msys64\mingw64\avr\include\avr\wdt.h **** 				"wdr"                        "\n\t"
 456:c:\msys64\mingw64\avr\include\avr\wdt.h **** 				"in  %[TEMPREG],%[WDTREG]"   "\n\t"
 457:c:\msys64\mingw64\avr\include\avr\wdt.h **** 				"ori %[TEMPREG],%[WDCE_WDE]" "\n\t"
 458:c:\msys64\mingw64\avr\include\avr\wdt.h **** 				"out %[WDTREG],%[TEMPREG]"   "\n\t"
 459:c:\msys64\mingw64\avr\include\avr\wdt.h **** 				"out %[WDTREG],__zero_reg__" "\n\t"
 460:c:\msys64\mingw64\avr\include\avr\wdt.h **** 				"out __SREG__,__tmp_reg__"   "\n\t"
 461:c:\msys64\mingw64\avr\include\avr\wdt.h **** 				: [TEMPREG] "=d" (temp_reg)
 462:c:\msys64\mingw64\avr\include\avr\wdt.h **** 				: [WDTREG]  "I"  (_SFR_IO_ADDR(_WD_CONTROL_REG)),
 463:c:\msys64\mingw64\avr\include\avr\wdt.h **** 				[WDCE_WDE]  "n"  ((uint8_t)(_BV(_WD_CHANGE_BIT) | _BV(WDE)))
 464:c:\msys64\mingw64\avr\include\avr\wdt.h **** 				: "r0"
 465:c:\msys64\mingw64\avr\include\avr\wdt.h **** 		);
 466:c:\msys64\mingw64\avr\include\avr\wdt.h **** 	}
 467:c:\msys64\mingw64\avr\include\avr\wdt.h **** 	else
 468:c:\msys64\mingw64\avr\include\avr\wdt.h **** 	{
 469:c:\msys64\mingw64\avr\include\avr\wdt.h ****         uint8_t register temp_reg;
 216               		.loc 2 469 9 view .LVU51
 470:c:\msys64\mingw64\avr\include\avr\wdt.h **** 		__asm__ __volatile__ (
 217               		.loc 2 470 3 view .LVU52
 218               	/* #APP */
 219               	 ;  470 "c:\msys64\mingw64\avr\include\avr\wdt.h" 1
 220 0048 0FB6      		in __tmp_reg__,__SREG__
 221 004a F894      		cli
 222 004c A895      		wdr
 223 004e 8091 6000 		lds r24,96
 224 0052 8861      		ori r24,24
 225 0054 8093 6000 		sts 96,r24
 226 0058 1092 6000 		sts 96,__zero_reg__
 227 005c 0FBE      		out __SREG__,__tmp_reg__
 228               		
 229               	 ;  0 "" 2
 230               	.LVL7:
 231               	/* #NOAPP */
 232               	.L5:
 233               	/* epilogue start */
 234               		.loc 2 470 3 is_stmt 0 view .LVU53
 235               	.LBE14:
 236               	.LBE15:
 237               	.LBE16:
 238               	.LBE17:
 143:tmk_core/common/avr/suspend.c **** 
 239               		.loc 1 143 1 view .LVU54
 240 005e 0895      		ret
 241               		.cfi_endproc
 242               	.LFE114:
 244               		.section	.text.matrix_power_down,"ax",@progbits
 245               		.weak	matrix_power_down
 247               	matrix_power_down:
 248               	.LFB123:
 249               		.cfi_startproc
 250               	/* prologue: function */
 251               	/* frame size = 0 */
 252               	/* stack size = 0 */
 253               	.L__stack_usage = 0
 254               	/* epilogue start */
 255 0000 0895      		ret
 256               		.cfi_endproc
 257               	.LFE123:
 259               		.section	.text.suspend_wakeup_condition,"ax",@progbits
 260               	.global	suspend_wakeup_condition
 262               	suspend_wakeup_condition:
 263               	.LFB117:
 146:tmk_core/common/avr/suspend.c **** __attribute__((weak)) void matrix_power_down(void) {}
 147:tmk_core/common/avr/suspend.c **** bool                       suspend_wakeup_condition(void) {
 264               		.loc 1 147 59 is_stmt 1 view -0
 265               		.cfi_startproc
 266               		.loc 1 147 59 is_stmt 0 view .LVU56
 267 0000 CF93      		push r28
 268               	.LCFI0:
 269               		.cfi_def_cfa_offset 3
 270               		.cfi_offset 28, -2
 271               	/* prologue: function */
 272               	/* frame size = 0 */
 273               	/* stack size = 1 */
 274               	.L__stack_usage = 1
 148:tmk_core/common/avr/suspend.c ****     matrix_power_up();
 275               		.loc 1 148 5 is_stmt 1 view .LVU57
 276 0002 0E94 0000 		call matrix_power_up
 277               	.LVL8:
 149:tmk_core/common/avr/suspend.c ****     matrix_scan();
 278               		.loc 1 149 5 view .LVU58
 279 0006 0E94 0000 		call matrix_scan
 280               	.LVL9:
 150:tmk_core/common/avr/suspend.c ****     matrix_power_down();
 281               		.loc 1 150 5 view .LVU59
 282 000a 0E94 0000 		call matrix_power_down
 283               	.LVL10:
 151:tmk_core/common/avr/suspend.c ****     for (uint8_t r = 0; r < MATRIX_ROWS; r++) {
 284               		.loc 1 151 5 view .LVU60
 285               	.LBB18:
 286               		.loc 1 151 10 view .LVU61
 287               		.loc 1 151 25 view .LVU62
 288               		.loc 1 151 18 is_stmt 0 view .LVU63
 289 000e C0E0      		ldi r28,0
 290               	.LVL11:
 291               	.L13:
 152:tmk_core/common/avr/suspend.c ****         if (matrix_get_row(r)) return true;
 292               		.loc 1 152 9 is_stmt 1 view .LVU64
 293               		.loc 1 152 13 is_stmt 0 view .LVU65
 294 0010 8C2F      		mov r24,r28
 295 0012 0E94 0000 		call matrix_get_row
 296               	.LVL12:
 297               		.loc 1 152 12 view .LVU66
 298 0016 8111      		cpse r24,__zero_reg__
 299 0018 00C0      		rjmp .L14
 151:tmk_core/common/avr/suspend.c ****     for (uint8_t r = 0; r < MATRIX_ROWS; r++) {
 300               		.loc 1 151 42 is_stmt 1 discriminator 2 view .LVU67
 151:tmk_core/common/avr/suspend.c ****     for (uint8_t r = 0; r < MATRIX_ROWS; r++) {
 301               		.loc 1 151 43 is_stmt 0 discriminator 2 view .LVU68
 302 001a CF5F      		subi r28,lo8(-(1))
 303               	.LVL13:
 151:tmk_core/common/avr/suspend.c ****     for (uint8_t r = 0; r < MATRIX_ROWS; r++) {
 304               		.loc 1 151 25 is_stmt 1 discriminator 2 view .LVU69
 151:tmk_core/common/avr/suspend.c ****     for (uint8_t r = 0; r < MATRIX_ROWS; r++) {
 305               		.loc 1 151 5 is_stmt 0 discriminator 2 view .LVU70
 306 001c C830      		cpi r28,lo8(8)
 307 001e 01F4      		brne .L13
 308               	.L11:
 309               	/* epilogue start */
 151:tmk_core/common/avr/suspend.c ****     for (uint8_t r = 0; r < MATRIX_ROWS; r++) {
 310               		.loc 1 151 5 discriminator 2 view .LVU71
 311               	.LBE18:
 153:tmk_core/common/avr/suspend.c ****     }
 154:tmk_core/common/avr/suspend.c ****     return false;
 155:tmk_core/common/avr/suspend.c **** }
 312               		.loc 1 155 1 view .LVU72
 313 0020 CF91      		pop r28
 314               	.LVL14:
 315               		.loc 1 155 1 view .LVU73
 316 0022 0895      		ret
 317               	.LVL15:
 318               	.L14:
 319               	.LBB19:
 152:tmk_core/common/avr/suspend.c ****         if (matrix_get_row(r)) return true;
 320               		.loc 1 152 39 view .LVU74
 321 0024 81E0      		ldi r24,lo8(1)
 322 0026 00C0      		rjmp .L11
 323               	.LBE19:
 324               		.cfi_endproc
 325               	.LFE117:
 327               		.section	.text.suspend_wakeup_init_user,"ax",@progbits
 328               		.weak	suspend_wakeup_init_user
 330               	suspend_wakeup_init_user:
 331               	.LFB125:
 332               		.cfi_startproc
 333               	/* prologue: function */
 334               	/* frame size = 0 */
 335               	/* stack size = 0 */
 336               	.L__stack_usage = 0
 337               	/* epilogue start */
 338 0000 0895      		ret
 339               		.cfi_endproc
 340               	.LFE125:
 342               		.section	.text.suspend_wakeup_init_kb,"ax",@progbits
 343               		.weak	suspend_wakeup_init_kb
 345               	suspend_wakeup_init_kb:
 346               	.LFB119:
 156:tmk_core/common/avr/suspend.c **** 
 157:tmk_core/common/avr/suspend.c **** /** \brief run user level code immediately after wakeup
 158:tmk_core/common/avr/suspend.c ****  *
 159:tmk_core/common/avr/suspend.c ****  * FIXME: needs doc
 160:tmk_core/common/avr/suspend.c ****  */
 161:tmk_core/common/avr/suspend.c **** __attribute__((weak)) void suspend_wakeup_init_user(void) {}
 162:tmk_core/common/avr/suspend.c **** 
 163:tmk_core/common/avr/suspend.c **** /** \brief run keyboard level code immediately after wakeup
 164:tmk_core/common/avr/suspend.c ****  *
 165:tmk_core/common/avr/suspend.c ****  * FIXME: needs doc
 166:tmk_core/common/avr/suspend.c ****  */
 167:tmk_core/common/avr/suspend.c **** __attribute__((weak)) void suspend_wakeup_init_kb(void) { suspend_wakeup_init_user(); }
 347               		.loc 1 167 57 is_stmt 1 view -0
 348               		.cfi_startproc
 349               	/* prologue: function */
 350               	/* frame size = 0 */
 351               	/* stack size = 0 */
 352               	.L__stack_usage = 0
 353               		.loc 1 167 59 view .LVU76
 354 0000 0C94 0000 		jmp suspend_wakeup_init_user
 355               	.LVL16:
 356               		.cfi_endproc
 357               	.LFE119:
 359               		.section	.text.suspend_wakeup_init,"ax",@progbits
 360               	.global	suspend_wakeup_init
 362               	suspend_wakeup_init:
 363               	.LFB120:
 168:tmk_core/common/avr/suspend.c **** /** \brief run immediately after wakeup
 169:tmk_core/common/avr/suspend.c ****  *
 170:tmk_core/common/avr/suspend.c ****  * FIXME: needs doc
 171:tmk_core/common/avr/suspend.c ****  */
 172:tmk_core/common/avr/suspend.c **** void suspend_wakeup_init(void) {
 364               		.loc 1 172 32 view -0
 365               		.cfi_startproc
 366               	/* prologue: function */
 367               	/* frame size = 0 */
 368               	/* stack size = 0 */
 369               	.L__stack_usage = 0
 173:tmk_core/common/avr/suspend.c ****     // clear keyboard state
 174:tmk_core/common/avr/suspend.c ****     clear_keyboard();
 370               		.loc 1 174 5 view .LVU78
 371 0000 0E94 0000 		call clear_keyboard
 372               	.LVL17:
 175:tmk_core/common/avr/suspend.c **** #ifdef BACKLIGHT_ENABLE
 176:tmk_core/common/avr/suspend.c ****     backlight_init();
 177:tmk_core/common/avr/suspend.c **** #endif
 178:tmk_core/common/avr/suspend.c ****     led_set(host_keyboard_leds());
 373               		.loc 1 178 5 view .LVU79
 374 0004 0E94 0000 		call host_keyboard_leds
 375               	.LVL18:
 376 0008 0E94 0000 		call led_set
 377               	.LVL19:
 179:tmk_core/common/avr/suspend.c **** #if defined(RGBLIGHT_SLEEP) && defined(RGBLIGHT_ENABLE)
 180:tmk_core/common/avr/suspend.c ****     is_suspended = false;
 181:tmk_core/common/avr/suspend.c ****     if (rgblight_enabled) {
 182:tmk_core/common/avr/suspend.c **** #    ifdef BOOTLOADER_TEENSY
 183:tmk_core/common/avr/suspend.c ****         wait_ms(10);
 184:tmk_core/common/avr/suspend.c **** #    endif
 185:tmk_core/common/avr/suspend.c ****         rgblight_enable_noeeprom();
 186:tmk_core/common/avr/suspend.c ****     }
 187:tmk_core/common/avr/suspend.c ****     rgblight_timer_enable();
 188:tmk_core/common/avr/suspend.c **** #endif
 189:tmk_core/common/avr/suspend.c ****     suspend_wakeup_init_kb();
 378               		.loc 1 189 5 view .LVU80
 379 000c 0C94 0000 		jmp suspend_wakeup_init_kb
 380               	.LVL20:
 381               		.cfi_endproc
 382               	.LFE120:
 384               		.section	.text.__vector_12,"ax",@progbits
 385               	.global	__vector_12
 387               	__vector_12:
 388               	.LFB121:
 190:tmk_core/common/avr/suspend.c **** }
 191:tmk_core/common/avr/suspend.c **** 
 192:tmk_core/common/avr/suspend.c **** #ifndef NO_SUSPEND_POWER_DOWN
 193:tmk_core/common/avr/suspend.c **** /* watchdog timeout */
 194:tmk_core/common/avr/suspend.c **** ISR(WDT_vect) {
 389               		.loc 1 194 15 view -0
 390               		.cfi_startproc
 391 0000 1F92 1FB6 		__gcc_isr 1
 391      1F92 1124 
 391      8F93 
 392 000a 9F93      		push r25
 393               	.LCFI1:
 394               		.cfi_def_cfa_offset 3
 395               		.cfi_offset 25, -2
 396 000c AF93      		push r26
 397               	.LCFI2:
 398               		.cfi_def_cfa_offset 4
 399               		.cfi_offset 26, -3
 400 000e BF93      		push r27
 401               	.LCFI3:
 402               		.cfi_def_cfa_offset 5
 403               		.cfi_offset 27, -4
 404               	/* prologue: Signal */
 405               	/* frame size = 0 */
 406               	/* stack size = 3...7 */
 407               	.L__stack_usage = 3 + __gcc_isr.n_pushed
 195:tmk_core/common/avr/suspend.c ****     // compensate timer for sleep
 196:tmk_core/common/avr/suspend.c ****     switch (wdt_timeout) {
 408               		.loc 1 196 5 view .LVU82
 409 0010 8091 0000 		lds r24,wdt_timeout
 410 0014 8111      		cpse r24,__zero_reg__
 411 0016 00C0      		rjmp .L19
 197:tmk_core/common/avr/suspend.c ****         case WDTO_15MS:
 198:tmk_core/common/avr/suspend.c ****             timer_count += 15 + 2;  // WDTO_15MS + 2(from observation)
 412               		.loc 1 198 13 view .LVU83
 413               		.loc 1 198 25 is_stmt 0 view .LVU84
 414 0018 8091 0000 		lds r24,timer_count
 415 001c 9091 0000 		lds r25,timer_count+1
 416 0020 A091 0000 		lds r26,timer_count+2
 417 0024 B091 0000 		lds r27,timer_count+3
 418 0028 4196      		adiw r24,17
 419 002a A11D      		adc r26,__zero_reg__
 420 002c B11D      		adc r27,__zero_reg__
 421 002e 8093 0000 		sts timer_count,r24
 422 0032 9093 0000 		sts timer_count+1,r25
 423 0036 A093 0000 		sts timer_count+2,r26
 424 003a B093 0000 		sts timer_count+3,r27
 199:tmk_core/common/avr/suspend.c ****             break;
 425               		.loc 1 199 13 is_stmt 1 view .LVU85
 200:tmk_core/common/avr/suspend.c ****         default:;
 426               		.loc 1 200 17 view .LVU86
 427               	.L19:
 428               	/* epilogue start */
 201:tmk_core/common/avr/suspend.c ****     }
 202:tmk_core/common/avr/suspend.c **** }
 429               		.loc 1 202 1 is_stmt 0 view .LVU87
 430 003e BF91      		pop r27
 431 0040 AF91      		pop r26
 432 0042 9F91      		pop r25
 433 0044 8F91 1F90 		__gcc_isr 2
 433      1FBE 1F90 
 434 004c 1895      		reti
 435               		__gcc_isr 0,r24
 436               		.cfi_endproc
 437               	.LFE121:
 439               		.section	.bss.wdt_timeout,"aw",@nobits
 442               	wdt_timeout:
 443 0000 00        		.zero	1
 444               		.text
 445               	.Letext0:
 446               		.file 3 "c:\\msys64\\mingw64\\avr\\include\\stdint.h"
 447               		.file 4 "tmk_core/common/action.h"
 448               		.file 5 "tmk_core/common/timer.h"
 449               		.file 6 "lib/lufa/LUFA/Drivers/USB/Core/AVR8/../StdRequestType.h"
 450               		.file 7 "lib/lufa/LUFA/Drivers/USB/Core/AVR8/../DeviceStandardReq.h"
 451               		.file 8 "lib/lufa/LUFA/Drivers/USB/Core/USBTask.h"
 452               		.file 9 "lib/lufa/LUFA/Drivers/USB/Core/HostStandardReq.h"
 453               		.file 10 "c:\\msys64\\mingw64\\avr\\include\\stdio.h"
 454               		.file 11 "tmk_core/common/report.h"
 455               		.file 12 "tmk_core/common/host_driver.h"
 456               		.file 13 "tmk_core/common/host.h"
 457               		.file 14 "tmk_core/protocol/lufa/lufa.h"
 458               		.file 15 "tmk_core/common/led.h"
 459               		.file 16 "tmk_core/common/matrix.h"
 460               		.file 17 "lib/lufa/LUFA/Drivers/USB/Core/AVR8/../Device.h"