   1               		.file	"wpm.c"
   2               	__SP_H__ = 0x3e
   3               	__SP_L__ = 0x3d
   4               	__SREG__ = 0x3f
   5               	__tmp_reg__ = 0
   6               	__zero_reg__ = 1
   7               		.text
   8               	.Ltext0:
   9               		.cfi_sections	.debug_frame
  10               		.section	.text.set_current_wpm,"ax",@progbits
  11               	.global	set_current_wpm
  13               	set_current_wpm:
  14               	.LVL0:
  15               	.LFB112:
  16               		.file 1 "quantum/wpm.c"
   1:quantum/wpm.c **** /*
   2:quantum/wpm.c ****  * Copyright 2020 Richard Sutherland (rich@brickbots.com)
   3:quantum/wpm.c ****  *
   4:quantum/wpm.c ****  * This program is free software: you can redistribute it and/or modify
   5:quantum/wpm.c ****  * it under the terms of the GNU General Public License as published by
   6:quantum/wpm.c ****  * the Free Software Foundation, either version 2 of the License, or
   7:quantum/wpm.c ****  * (at your option) any later version.
   8:quantum/wpm.c ****  *
   9:quantum/wpm.c ****  * This program is distributed in the hope that it will be useful,
  10:quantum/wpm.c ****  * but WITHOUT ANY WARRANTY; without even the implied warranty of
  11:quantum/wpm.c ****  * MERCHANTABILITY or FITNESS FOR A PARTICULAR PURPOSE.  See the
  12:quantum/wpm.c ****  * GNU General Public License for more details.
  13:quantum/wpm.c ****  *
  14:quantum/wpm.c ****  * You should have received a copy of the GNU General Public License
  15:quantum/wpm.c ****  * along with this program.  If not, see <http://www.gnu.org/licenses/>.
  16:quantum/wpm.c ****  */
  17:quantum/wpm.c **** 
  18:quantum/wpm.c **** #include "wpm.h"
  19:quantum/wpm.c **** 
  20:quantum/wpm.c **** // WPM Stuff
  21:quantum/wpm.c **** static uint8_t  current_wpm = 0;
  22:quantum/wpm.c **** static uint8_t  latest_wpm  = 0;
  23:quantum/wpm.c **** static uint16_t wpm_timer   = 0;
  24:quantum/wpm.c **** 
  25:quantum/wpm.c **** // This smoothing is 40 keystrokes
  26:quantum/wpm.c **** static const float wpm_smoothing = 0.0487;
  27:quantum/wpm.c **** 
  28:quantum/wpm.c **** void set_current_wpm(uint8_t new_wpm) { current_wpm = new_wpm; }
  17               		.loc 1 28 39 view -0
  18               		.cfi_startproc
  19               	/* prologue: function */
  20               	/* frame size = 0 */
  21               	/* stack size = 0 */
  22               	.L__stack_usage = 0
  23               		.loc 1 28 41 view .LVU1
  24               		.loc 1 28 53 is_stmt 0 view .LVU2
  25 0000 8093 0000 		sts current_wpm,r24
  26               	/* epilogue start */
  27               		.loc 1 28 1 view .LVU3
  28 0004 0895      		ret
  29               		.cfi_endproc
  30               	.LFE112:
  32               		.section	.text.get_current_wpm,"ax",@progbits
  33               	.global	get_current_wpm
  35               	get_current_wpm:
  36               	.LFB113:
  29:quantum/wpm.c **** 
  30:quantum/wpm.c **** uint8_t get_current_wpm(void) { return current_wpm; }
  37               		.loc 1 30 31 is_stmt 1 view -0
  38               		.cfi_startproc
  39               	/* prologue: function */
  40               	/* frame size = 0 */
  41               	/* stack size = 0 */
  42               	.L__stack_usage = 0
  43               		.loc 1 30 33 view .LVU5
  44               		.loc 1 30 1 is_stmt 0 view .LVU6
  45 0000 8091 0000 		lds r24,current_wpm
  46               	/* epilogue start */
  47 0004 0895      		ret
  48               		.cfi_endproc
  49               	.LFE113:
  51               		.section	.text.wpm_keycode_user,"ax",@progbits
  52               		.weak	wpm_keycode_user
  54               	wpm_keycode_user:
  55               	.LVL1:
  56               	.LFB116:
  31:quantum/wpm.c **** 
  32:quantum/wpm.c **** bool wpm_keycode(uint16_t keycode) { return wpm_keycode_kb(keycode); }
  33:quantum/wpm.c **** 
  34:quantum/wpm.c **** __attribute__((weak)) bool wpm_keycode_kb(uint16_t keycode) { return wpm_keycode_user(keycode); }
  35:quantum/wpm.c **** 
  36:quantum/wpm.c **** __attribute__((weak)) bool wpm_keycode_user(uint16_t keycode) {
  57               		.loc 1 36 63 is_stmt 1 view -0
  58               		.cfi_startproc
  59               	/* prologue: function */
  60               	/* frame size = 0 */
  61               	/* stack size = 0 */
  62               	.L__stack_usage = 0
  37:quantum/wpm.c ****     if ((keycode >= QK_MOD_TAP && keycode <= QK_MOD_TAP_MAX) || (keycode >= QK_LAYER_TAP && keycode
  63               		.loc 1 37 5 view .LVU8
  64               		.loc 1 37 32 is_stmt 0 view .LVU9
  65 0000 9C01      		movw r18,r24
  66 0002 3056      		subi r19,96
  67               		.loc 1 37 8 view .LVU10
  68 0004 2115      		cp r18,__zero_reg__
  69 0006 40E2      		ldi r20,32
  70 0008 3407      		cpc r19,r20
  71 000a 00F0      		brlo .L4
  72               		.loc 1 37 90 discriminator 1 view .LVU11
  73 000c 305E      		subi r19,-32
  74               		.loc 1 37 62 discriminator 1 view .LVU12
  75 000e 2115      		cp r18,__zero_reg__
  76 0010 40E1      		ldi r20,16
  77 0012 3407      		cpc r19,r20
  78 0014 00F0      		brlo .L4
  79               		.loc 1 37 145 discriminator 2 view .LVU13
  80 0016 315C      		subi r19,-63
  81               		.loc 1 37 122 discriminator 2 view .LVU14
  82 0018 2115      		cp r18,__zero_reg__
  83 001a 3F41      		sbci r19,31
  84 001c 00F4      		brsh .L5
  85               	.L4:
  38:quantum/wpm.c ****         keycode = keycode & 0xFF;
  86               		.loc 1 38 9 is_stmt 1 view .LVU15
  87               		.loc 1 38 17 is_stmt 0 view .LVU16
  88 001e 9927      		clr r25
  89               	.LVL2:
  90               	.L6:
  39:quantum/wpm.c ****     } else if (keycode > 0xFF) {
  40:quantum/wpm.c ****         keycode = 0;
  41:quantum/wpm.c ****     }
  42:quantum/wpm.c ****     if ((keycode >= KC_A && keycode <= KC_0) || (keycode >= KC_TAB && keycode <= KC_SLASH)) {
  91               		.loc 1 42 5 is_stmt 1 view .LVU17
  92               		.loc 1 42 26 is_stmt 0 view .LVU18
  93 0020 9C01      		movw r18,r24
  94 0022 2450      		subi r18,4
  95 0024 3109      		sbc r19,__zero_reg__
  96               		.loc 1 42 8 view .LVU19
  97 0026 2432      		cpi r18,36
  98 0028 3105      		cpc r19,__zero_reg__
  99 002a 00F0      		brlo .L9
 100               	.LVL3:
 101               		.loc 1 42 68 discriminator 1 view .LVU20
 102 002c 2752      		subi r18,39
 103 002e 3109      		sbc r19,__zero_reg__
 104               		.loc 1 42 46 discriminator 1 view .LVU21
 105 0030 81E0      		ldi r24,lo8(1)
 106 0032 2E30      		cpi r18,14
 107 0034 3105      		cpc r19,__zero_reg__
 108 0036 00F0      		brlo .L3
 109 0038 80E0      		ldi r24,0
 110 003a 0895      		ret
 111               	.LVL4:
 112               	.L5:
  39:quantum/wpm.c ****     } else if (keycode > 0xFF) {
 113               		.loc 1 39 12 is_stmt 1 view .LVU22
  39:quantum/wpm.c ****     } else if (keycode > 0xFF) {
 114               		.loc 1 39 15 is_stmt 0 view .LVU23
 115 003c 8F3F      		cpi r24,-1
 116 003e 9105      		cpc r25,__zero_reg__
 117 0040 01F0      		breq .L6
 118 0042 00F0      		brlo .L6
  40:quantum/wpm.c ****     }
 119               		.loc 1 40 17 view .LVU24
 120 0044 90E0      		ldi r25,0
 121 0046 80E0      		ldi r24,0
 122               	.LVL5:
  40:quantum/wpm.c ****     }
 123               		.loc 1 40 17 view .LVU25
 124 0048 00C0      		rjmp .L6
 125               	.LVL6:
 126               	.L9:
  43:quantum/wpm.c ****         return true;
 127               		.loc 1 43 16 view .LVU26
 128 004a 81E0      		ldi r24,lo8(1)
 129               	.LVL7:
 130               	.L3:
 131               	/* epilogue start */
  44:quantum/wpm.c ****     }
  45:quantum/wpm.c **** 
  46:quantum/wpm.c ****     return false;
  47:quantum/wpm.c **** }
 132               		.loc 1 47 1 view .LVU27
 133 004c 0895      		ret
 134               		.cfi_endproc
 135               	.LFE116:
 137               		.section	.text.wpm_keycode_kb,"ax",@progbits
 138               		.weak	wpm_keycode_kb
 140               	wpm_keycode_kb:
 141               	.LVL8:
 142               	.LFB115:
  34:quantum/wpm.c **** 
 143               		.loc 1 34 61 is_stmt 1 view -0
 144               		.cfi_startproc
 145               	/* prologue: function */
 146               	/* frame size = 0 */
 147               	/* stack size = 0 */
 148               	.L__stack_usage = 0
  34:quantum/wpm.c **** 
 149               		.loc 1 34 63 view .LVU29
  34:quantum/wpm.c **** 
 150               		.loc 1 34 70 is_stmt 0 view .LVU30
 151 0000 0C94 0000 		jmp wpm_keycode_user
 152               	.LVL9:
  34:quantum/wpm.c **** 
 153               		.loc 1 34 70 view .LVU31
 154               		.cfi_endproc
 155               	.LFE115:
 157               		.section	.text.wpm_keycode,"ax",@progbits
 158               	.global	wpm_keycode
 160               	wpm_keycode:
 161               	.LVL10:
 162               	.LFB114:
  32:quantum/wpm.c **** 
 163               		.loc 1 32 36 is_stmt 1 view -0
 164               		.cfi_startproc
 165               	/* prologue: function */
 166               	/* frame size = 0 */
 167               	/* stack size = 0 */
 168               	.L__stack_usage = 0
  32:quantum/wpm.c **** 
 169               		.loc 1 32 38 view .LVU33
  32:quantum/wpm.c **** 
 170               		.loc 1 32 45 is_stmt 0 view .LVU34
 171 0000 0C94 0000 		jmp wpm_keycode_kb
 172               	.LVL11:
  32:quantum/wpm.c **** 
 173               		.loc 1 32 45 view .LVU35
 174               		.cfi_endproc
 175               	.LFE114:
 177               	.global	__floatsisf
 178               	.global	__mulsf3
 179               	.global	__addsf3
 180               	.global	__fixunssfsi
 181               		.section	.text.update_wpm,"ax",@progbits
 182               	.global	update_wpm
 184               	update_wpm:
 185               	.LVL12:
 186               	.LFB117:
  48:quantum/wpm.c **** 
  49:quantum/wpm.c **** void update_wpm(uint16_t keycode) {
 187               		.loc 1 49 35 is_stmt 1 view -0
 188               		.cfi_startproc
 189               		.loc 1 49 35 is_stmt 0 view .LVU37
 190 0000 CF92      		push r12
 191               	.LCFI0:
 192               		.cfi_def_cfa_offset 3
 193               		.cfi_offset 12, -2
 194 0002 DF92      		push r13
 195               	.LCFI1:
 196               		.cfi_def_cfa_offset 4
 197               		.cfi_offset 13, -3
 198 0004 EF92      		push r14
 199               	.LCFI2:
 200               		.cfi_def_cfa_offset 5
 201               		.cfi_offset 14, -4
 202 0006 FF92      		push r15
 203               	.LCFI3:
 204               		.cfi_def_cfa_offset 6
 205               		.cfi_offset 15, -5
 206 0008 CF93      		push r28
 207               	.LCFI4:
 208               		.cfi_def_cfa_offset 7
 209               		.cfi_offset 28, -6
 210 000a DF93      		push r29
 211               	.LCFI5:
 212               		.cfi_def_cfa_offset 8
 213               		.cfi_offset 29, -7
 214               	/* prologue: function */
 215               	/* frame size = 0 */
 216               	/* stack size = 6 */
 217               	.L__stack_usage = 6
  50:quantum/wpm.c ****     if (wpm_keycode(keycode)) {
 218               		.loc 1 50 5 is_stmt 1 view .LVU38
 219               	.LVL13:
 220               	.LBB4:
 221               	.LBI4:
  32:quantum/wpm.c **** 
 222               		.loc 1 32 6 view .LVU39
 223               	.LBB5:
  32:quantum/wpm.c **** 
 224               		.loc 1 32 38 view .LVU40
  32:quantum/wpm.c **** 
 225               		.loc 1 32 45 is_stmt 0 view .LVU41
 226 000c 0E94 0000 		call wpm_keycode_kb
 227               	.LVL14:
  32:quantum/wpm.c **** 
 228               		.loc 1 32 45 view .LVU42
 229               	.LBE5:
 230               	.LBE4:
 231               		.loc 1 50 8 view .LVU43
 232 0010 8823      		tst r24
 233 0012 01F4      		brne .+2
 234 0014 00C0      		rjmp .L12
  51:quantum/wpm.c ****         if (wpm_timer > 0) {
 235               		.loc 1 51 9 is_stmt 1 view .LVU44
 236               		.loc 1 51 23 is_stmt 0 view .LVU45
 237 0016 8091 0000 		lds r24,wpm_timer
 238 001a 9091 0000 		lds r25,wpm_timer+1
 239               		.loc 1 51 12 view .LVU46
 240 001e 0097      		sbiw r24,0
 241 0020 01F0      		breq .L14
  52:quantum/wpm.c ****             latest_wpm  = 60000 / timer_elapsed(wpm_timer) / 5;
 242               		.loc 1 52 13 is_stmt 1 view .LVU47
 243               		.loc 1 52 35 is_stmt 0 view .LVU48
 244 0022 0E94 0000 		call timer_elapsed
 245               	.LVL15:
  53:quantum/wpm.c ****             current_wpm = (latest_wpm - current_wpm) * wpm_smoothing + current_wpm;
 246               		.loc 1 53 13 is_stmt 1 view .LVU49
 247               		.loc 1 53 39 is_stmt 0 view .LVU50
 248 0026 6091 0000 		lds r22,current_wpm
 249 002a C62F      		mov r28,r22
 250 002c D0E0      		ldi r29,0
  52:quantum/wpm.c ****             latest_wpm  = 60000 / timer_elapsed(wpm_timer) / 5;
 251               		.loc 1 52 35 view .LVU51
 252 002e 9C01      		movw r18,r24
 253 0030 50E0      		ldi r21,0
 254 0032 40E0      		ldi r20,0
  52:quantum/wpm.c ****             latest_wpm  = 60000 / timer_elapsed(wpm_timer) / 5;
 255               		.loc 1 52 33 view .LVU52
 256 0034 60E6      		ldi r22,lo8(96)
 257 0036 7AEE      		ldi r23,lo8(-22)
 258 0038 80E0      		ldi r24,0
 259 003a 90E0      		ldi r25,0
 260 003c 0E94 0000 		call __divmodsi4
  52:quantum/wpm.c ****             latest_wpm  = 60000 / timer_elapsed(wpm_timer) / 5;
 261               		.loc 1 52 60 view .LVU53
 262 0040 CA01      		movw r24,r20
 263 0042 B901      		movw r22,r18
 264 0044 25E0      		ldi r18,lo8(5)
 265 0046 30E0      		ldi r19,0
 266 0048 40E0      		ldi r20,0
 267 004a 50E0      		ldi r21,0
 268 004c 0E94 0000 		call __divmodsi4
 269               		.loc 1 53 39 view .LVU54
 270 0050 30E0      		ldi r19,0
 271 0052 2C1B      		sub r18,r28
 272 0054 3D0B      		sbc r19,r29
 273               		.loc 1 53 54 view .LVU55
 274 0056 B901      		movw r22,r18
 275 0058 330F      		lsl r19
 276 005a 880B      		sbc r24,r24
 277 005c 990B      		sbc r25,r25
 278 005e 0E94 0000 		call __floatsisf
 279               	.LVL16:
 280 0062 27EA      		ldi r18,lo8(-89)
 281 0064 39E7      		ldi r19,lo8(121)
 282 0066 47E4      		ldi r20,lo8(71)
 283 0068 5DE3      		ldi r21,lo8(61)
 284 006a 0E94 0000 		call __mulsf3
 285               	.LVL17:
 286 006e 6B01      		movw r12,r22
 287 0070 7C01      		movw r14,r24
 288               		.loc 1 53 70 view .LVU56
 289 0072 BE01      		movw r22,r28
 290 0074 DD0F      		lsl r29
 291 0076 880B      		sbc r24,r24
 292 0078 990B      		sbc r25,r25
 293 007a 0E94 0000 		call __floatsisf
 294               	.LVL18:
 295 007e 9B01      		movw r18,r22
 296 0080 AC01      		movw r20,r24
 297 0082 C701      		movw r24,r14
 298 0084 B601      		movw r22,r12
 299 0086 0E94 0000 		call __addsf3
 300               	.LVL19:
 301               		.loc 1 53 25 view .LVU57
 302 008a 0E94 0000 		call __fixunssfsi
 303               	.LVL20:
 304 008e 6093 0000 		sts current_wpm,r22
 305               	.L14:
  54:quantum/wpm.c ****         }
  55:quantum/wpm.c ****         wpm_timer = timer_read();
 306               		.loc 1 55 9 is_stmt 1 view .LVU58
 307               		.loc 1 55 21 is_stmt 0 view .LVU59
 308 0092 0E94 0000 		call timer_read
 309               	.LVL21:
 310               		.loc 1 55 19 view .LVU60
 311 0096 9093 0000 		sts wpm_timer+1,r25
 312 009a 8093 0000 		sts wpm_timer,r24
 313               	.L12:
 314               	/* epilogue start */
  56:quantum/wpm.c ****     }
  57:quantum/wpm.c **** }
 315               		.loc 1 57 1 view .LVU61
 316 009e DF91      		pop r29
 317 00a0 CF91      		pop r28
 318 00a2 FF90      		pop r15
 319 00a4 EF90      		pop r14
 320 00a6 DF90      		pop r13
 321 00a8 CF90      		pop r12
 322 00aa 0895      		ret
 323               		.cfi_endproc
 324               	.LFE117:
 326               		.section	.text.decay_wpm,"ax",@progbits
 327               	.global	decay_wpm
 329               	decay_wpm:
 330               	.LFB118:
  58:quantum/wpm.c **** 
  59:quantum/wpm.c **** void decay_wpm(void) {
 331               		.loc 1 59 22 is_stmt 1 view -0
 332               		.cfi_startproc
 333 0000 CF92      		push r12
 334               	.LCFI6:
 335               		.cfi_def_cfa_offset 3
 336               		.cfi_offset 12, -2
 337 0002 DF92      		push r13
 338               	.LCFI7:
 339               		.cfi_def_cfa_offset 4
 340               		.cfi_offset 13, -3
 341 0004 EF92      		push r14
 342               	.LCFI8:
 343               		.cfi_def_cfa_offset 5
 344               		.cfi_offset 14, -4
 345 0006 FF92      		push r15
 346               	.LCFI9:
 347               		.cfi_def_cfa_offset 6
 348               		.cfi_offset 15, -5
 349 0008 CF93      		push r28
 350               	.LCFI10:
 351               		.cfi_def_cfa_offset 7
 352               		.cfi_offset 28, -6
 353 000a DF93      		push r29
 354               	.LCFI11:
 355               		.cfi_def_cfa_offset 8
 356               		.cfi_offset 29, -7
 357               	/* prologue: function */
 358               	/* frame size = 0 */
 359               	/* stack size = 6 */
 360               	.L__stack_usage = 6
  60:quantum/wpm.c ****     if (timer_elapsed(wpm_timer) > 1000) {
 361               		.loc 1 60 5 view .LVU63
 362               		.loc 1 60 9 is_stmt 0 view .LVU64
 363 000c 8091 0000 		lds r24,wpm_timer
 364 0010 9091 0000 		lds r25,wpm_timer+1
 365 0014 0E94 0000 		call timer_elapsed
 366               	.LVL22:
 367               		.loc 1 60 8 view .LVU65
 368 0018 893E      		cpi r24,-23
 369 001a 9340      		sbci r25,3
 370 001c 00F0      		brlo .L21
  61:quantum/wpm.c ****         current_wpm = (0 - current_wpm) * wpm_smoothing + current_wpm;
 371               		.loc 1 61 9 is_stmt 1 view .LVU66
 372               		.loc 1 61 26 is_stmt 0 view .LVU67
 373 001e 6091 0000 		lds r22,current_wpm
 374 0022 C62F      		mov r28,r22
 375 0024 D0E0      		ldi r29,0
 376 0026 6627      		clr r22
 377 0028 7727      		clr r23
 378 002a 6C1B      		sub r22,r28
 379 002c 7D0B      		sbc r23,r29
 380               		.loc 1 61 41 view .LVU68
 381 002e 072E      		mov __tmp_reg__,r23
 382 0030 000C      		lsl r0
 383 0032 880B      		sbc r24,r24
 384 0034 990B      		sbc r25,r25
 385 0036 0E94 0000 		call __floatsisf
 386               	.LVL23:
 387 003a 27EA      		ldi r18,lo8(-89)
 388 003c 39E7      		ldi r19,lo8(121)
 389 003e 47E4      		ldi r20,lo8(71)
 390 0040 5DE3      		ldi r21,lo8(61)
 391 0042 0E94 0000 		call __mulsf3
 392               	.LVL24:
 393 0046 6B01      		movw r12,r22
 394 0048 7C01      		movw r14,r24
 395               		.loc 1 61 57 view .LVU69
 396 004a BE01      		movw r22,r28
 397 004c DD0F      		lsl r29
 398 004e 880B      		sbc r24,r24
 399 0050 990B      		sbc r25,r25
 400 0052 0E94 0000 		call __floatsisf
 401               	.LVL25:
 402 0056 9B01      		movw r18,r22
 403 0058 AC01      		movw r20,r24
 404 005a C701      		movw r24,r14
 405 005c B601      		movw r22,r12
 406 005e 0E94 0000 		call __addsf3
 407               	.LVL26:
 408               		.loc 1 61 21 view .LVU70
 409 0062 0E94 0000 		call __fixunssfsi
 410               	.LVL27:
 411 0066 6093 0000 		sts current_wpm,r22
  62:quantum/wpm.c ****         wpm_timer   = timer_read();
 412               		.loc 1 62 9 is_stmt 1 view .LVU71
 413               		.loc 1 62 23 is_stmt 0 view .LVU72
 414 006a 0E94 0000 		call timer_read
 415               	.LVL28:
 416               		.loc 1 62 21 view .LVU73
 417 006e 9093 0000 		sts wpm_timer+1,r25
 418 0072 8093 0000 		sts wpm_timer,r24
 419               	.L21:
 420               	/* epilogue start */
  63:quantum/wpm.c ****     }
  64:quantum/wpm.c **** }
 421               		.loc 1 64 1 view .LVU74
 422 0076 DF91      		pop r29
 423 0078 CF91      		pop r28
 424 007a FF90      		pop r15
 425 007c EF90      		pop r14
 426 007e DF90      		pop r13
 427 0080 CF90      		pop r12
 428 0082 0895      		ret
 429               		.cfi_endproc
 430               	.LFE118:
 432               		.section	.bss.wpm_timer,"aw",@nobits
 435               	wpm_timer:
 436 0000 0000      		.zero	2
 437               		.section	.bss.current_wpm,"aw",@nobits
 440               	current_wpm:
 441 0000 00        		.zero	1
 442               		.text
 443               	.Letext0:
 444               		.file 2 "c:\\msys64\\mingw64\\avr\\include\\stdint.h"
 445               		.file 3 "c:\\msys64\\mingw64\\lib\\gcc\\avr\\8.4.0\\include\\stddef.h"
 446               		.file 4 "lib/lufa/LUFA/Drivers/USB/Core/AVR8/../StdRequestType.h"
 447               		.file 5 "tmk_core/common/action.h"
 448               		.file 6 "lib/lufa/LUFA/Drivers/USB/Core/AVR8/../DeviceStandardReq.h"
 449               		.file 7 "lib/lufa/LUFA/Drivers/USB/Core/USBTask.h"
 450               		.file 8 "lib/lufa/LUFA/Drivers/USB/Core/HostStandardReq.h"
 451               		.file 9 "c:\\msys64\\mingw64\\avr\\include\\stdio.h"
 452               		.file 10 "tmk_core/common/report.h"
 453               		.file 11 "tmk_core/common/host.h"
 454               		.file 12 "tmk_core/common/debug.h"
 455               		.file 13 "quantum/keycode_config.h"
 456               		.file 14 "tmk_core/common/keycode.h"
 457               		.file 15 "quantum/quantum_keycodes.h"
 458               		.file 16 "quantum/keymap.h"
 459               		.file 17 "tmk_core/common/action_layer.h"
 460               		.file 18 "tmk_core/common/timer.h"
 461               		.file 19 "tmk_core/common/action_util.h"
 462               		.file 20 "c:\\msys64\\mingw64\\avr\\include\\stdlib.h"
 463               		.file 21 "quantum/process_keycode/process_tap_dance.h"
 464               		.file 22 "quantum/quantum.h"