   1               		.file	"process_space_cadet.c"
   2               	__SP_H__ = 0x3e
   3               	__SP_L__ = 0x3d
   4               	__SREG__ = 0x3f
   5               	__tmp_reg__ = 0
   6               	__zero_reg__ = 1
   7               		.text
   8               	.Ltext0:
   9               		.cfi_sections	.debug_frame
  10               		.section	.text.perform_space_cadet,"ax",@progbits
  11               	.global	perform_space_cadet
  13               	perform_space_cadet:
  14               	.LVL0:
  15               	.LFB112:
  16               		.file 1 "quantum/process_keycode/process_space_cadet.c"
   1:quantum/process_keycode/process_space_cadet.c **** /* Copyright 2019 Jack Humbert
   2:quantum/process_keycode/process_space_cadet.c ****  *
   3:quantum/process_keycode/process_space_cadet.c ****  * This program is free software: you can redistribute it and/or modify
   4:quantum/process_keycode/process_space_cadet.c ****  * it under the terms of the GNU General Public License as published by
   5:quantum/process_keycode/process_space_cadet.c ****  * the Free Software Foundation, either version 2 of the License, or
   6:quantum/process_keycode/process_space_cadet.c ****  * (at your option) any later version.
   7:quantum/process_keycode/process_space_cadet.c ****  *
   8:quantum/process_keycode/process_space_cadet.c ****  * This program is distributed in the hope that it will be useful,
   9:quantum/process_keycode/process_space_cadet.c ****  * but WITHOUT ANY WARRANTY; without even the implied warranty of
  10:quantum/process_keycode/process_space_cadet.c ****  * MERCHANTABILITY or FITNESS FOR A PARTICULAR PURPOSE.  See the
  11:quantum/process_keycode/process_space_cadet.c ****  * GNU General Public License for more details.
  12:quantum/process_keycode/process_space_cadet.c ****  *
  13:quantum/process_keycode/process_space_cadet.c ****  * You should have received a copy of the GNU General Public License
  14:quantum/process_keycode/process_space_cadet.c ****  * along with this program.  If not, see <http://www.gnu.org/licenses/>.
  15:quantum/process_keycode/process_space_cadet.c ****  */
  16:quantum/process_keycode/process_space_cadet.c **** #include "process_space_cadet.h"
  17:quantum/process_keycode/process_space_cadet.c **** #include "action_tapping.h"
  18:quantum/process_keycode/process_space_cadet.c **** 
  19:quantum/process_keycode/process_space_cadet.c **** #ifdef NO_ACTION_TAPPING
  20:quantum/process_keycode/process_space_cadet.c **** __attribute__((weak)) uint16_t get_tapping_term(uint16_t keycode, keyrecord_t *record) { return TAP
  21:quantum/process_keycode/process_space_cadet.c **** #endif
  22:quantum/process_keycode/process_space_cadet.c **** 
  23:quantum/process_keycode/process_space_cadet.c **** // ********** OBSOLETE DEFINES, STOP USING! (pls?) **********
  24:quantum/process_keycode/process_space_cadet.c **** // Shift / paren setup
  25:quantum/process_keycode/process_space_cadet.c **** #ifndef LSPO_KEY
  26:quantum/process_keycode/process_space_cadet.c **** #    define LSPO_KEY KC_9
  27:quantum/process_keycode/process_space_cadet.c **** #endif
  28:quantum/process_keycode/process_space_cadet.c **** #ifndef RSPC_KEY
  29:quantum/process_keycode/process_space_cadet.c **** #    define RSPC_KEY KC_0
  30:quantum/process_keycode/process_space_cadet.c **** #endif
  31:quantum/process_keycode/process_space_cadet.c **** 
  32:quantum/process_keycode/process_space_cadet.c **** // Shift / Enter setup
  33:quantum/process_keycode/process_space_cadet.c **** #ifndef SFTENT_KEY
  34:quantum/process_keycode/process_space_cadet.c **** #    define SFTENT_KEY KC_ENT
  35:quantum/process_keycode/process_space_cadet.c **** #endif
  36:quantum/process_keycode/process_space_cadet.c **** 
  37:quantum/process_keycode/process_space_cadet.c **** #ifdef DISABLE_SPACE_CADET_MODIFIER
  38:quantum/process_keycode/process_space_cadet.c **** #    ifndef LSPO_MOD
  39:quantum/process_keycode/process_space_cadet.c **** #        define LSPO_MOD KC_TRNS
  40:quantum/process_keycode/process_space_cadet.c **** #    endif
  41:quantum/process_keycode/process_space_cadet.c **** #    ifndef RSPC_MOD
  42:quantum/process_keycode/process_space_cadet.c **** #        define RSPC_MOD KC_TRNS
  43:quantum/process_keycode/process_space_cadet.c **** #    endif
  44:quantum/process_keycode/process_space_cadet.c **** #else
  45:quantum/process_keycode/process_space_cadet.c **** #    ifndef LSPO_MOD
  46:quantum/process_keycode/process_space_cadet.c **** #        define LSPO_MOD KC_LSFT
  47:quantum/process_keycode/process_space_cadet.c **** #    endif
  48:quantum/process_keycode/process_space_cadet.c **** #    ifndef RSPC_MOD
  49:quantum/process_keycode/process_space_cadet.c **** #        define RSPC_MOD KC_RSFT
  50:quantum/process_keycode/process_space_cadet.c **** #    endif
  51:quantum/process_keycode/process_space_cadet.c **** #endif
  52:quantum/process_keycode/process_space_cadet.c **** // **********************************************************
  53:quantum/process_keycode/process_space_cadet.c **** 
  54:quantum/process_keycode/process_space_cadet.c **** // Shift / paren setup
  55:quantum/process_keycode/process_space_cadet.c **** #ifndef LSPO_KEYS
  56:quantum/process_keycode/process_space_cadet.c **** #    define LSPO_KEYS KC_LSFT, LSPO_MOD, LSPO_KEY
  57:quantum/process_keycode/process_space_cadet.c **** #endif
  58:quantum/process_keycode/process_space_cadet.c **** #ifndef RSPC_KEYS
  59:quantum/process_keycode/process_space_cadet.c **** #    define RSPC_KEYS KC_RSFT, RSPC_MOD, RSPC_KEY
  60:quantum/process_keycode/process_space_cadet.c **** #endif
  61:quantum/process_keycode/process_space_cadet.c **** 
  62:quantum/process_keycode/process_space_cadet.c **** // Control / paren setup
  63:quantum/process_keycode/process_space_cadet.c **** #ifndef LCPO_KEYS
  64:quantum/process_keycode/process_space_cadet.c **** #    define LCPO_KEYS KC_LCTL, KC_LSFT, KC_9
  65:quantum/process_keycode/process_space_cadet.c **** #endif
  66:quantum/process_keycode/process_space_cadet.c **** #ifndef RCPC_KEYS
  67:quantum/process_keycode/process_space_cadet.c **** #    define RCPC_KEYS KC_RCTL, KC_RSFT, KC_0
  68:quantum/process_keycode/process_space_cadet.c **** #endif
  69:quantum/process_keycode/process_space_cadet.c **** 
  70:quantum/process_keycode/process_space_cadet.c **** // Alt / paren setup
  71:quantum/process_keycode/process_space_cadet.c **** #ifndef LAPO_KEYS
  72:quantum/process_keycode/process_space_cadet.c **** #    define LAPO_KEYS KC_LALT, KC_LSFT, KC_9
  73:quantum/process_keycode/process_space_cadet.c **** #endif
  74:quantum/process_keycode/process_space_cadet.c **** #ifndef RAPC_KEYS
  75:quantum/process_keycode/process_space_cadet.c **** #    define RAPC_KEYS KC_RALT, KC_RSFT, KC_0
  76:quantum/process_keycode/process_space_cadet.c **** #endif
  77:quantum/process_keycode/process_space_cadet.c **** 
  78:quantum/process_keycode/process_space_cadet.c **** // Shift / Enter setup
  79:quantum/process_keycode/process_space_cadet.c **** #ifndef SFTENT_KEYS
  80:quantum/process_keycode/process_space_cadet.c **** #    define SFTENT_KEYS KC_RSFT, KC_TRNS, SFTENT_KEY
  81:quantum/process_keycode/process_space_cadet.c **** #endif
  82:quantum/process_keycode/process_space_cadet.c **** 
  83:quantum/process_keycode/process_space_cadet.c **** static uint8_t  sc_last  = 0;
  84:quantum/process_keycode/process_space_cadet.c **** static uint16_t sc_timer = 0;
  85:quantum/process_keycode/process_space_cadet.c **** #ifdef SPACE_CADET_MODIFIER_CARRYOVER
  86:quantum/process_keycode/process_space_cadet.c **** static uint8_t sc_mods = 0;
  87:quantum/process_keycode/process_space_cadet.c **** #endif
  88:quantum/process_keycode/process_space_cadet.c **** 
  89:quantum/process_keycode/process_space_cadet.c **** void perform_space_cadet(keyrecord_t *record, uint16_t sc_keycode, uint8_t holdMod, uint8_t tapMod,
  17               		.loc 1 89 118 view -0
  18               		.cfi_startproc
  19               		.loc 1 89 118 is_stmt 0 view .LVU1
  20 0000 AF92      		push r10
  21               	.LCFI0:
  22               		.cfi_def_cfa_offset 3
  23               		.cfi_offset 10, -2
  24 0002 BF92      		push r11
  25               	.LCFI1:
  26               		.cfi_def_cfa_offset 4
  27               		.cfi_offset 11, -3
  28 0004 CF92      		push r12
  29               	.LCFI2:
  30               		.cfi_def_cfa_offset 5
  31               		.cfi_offset 12, -4
  32 0006 DF92      		push r13
  33               	.LCFI3:
  34               		.cfi_def_cfa_offset 6
  35               		.cfi_offset 13, -5
  36 0008 EF92      		push r14
  37               	.LCFI4:
  38               		.cfi_def_cfa_offset 7
  39               		.cfi_offset 14, -6
  40 000a FF92      		push r15
  41               	.LCFI5:
  42               		.cfi_def_cfa_offset 8
  43               		.cfi_offset 15, -7
  44 000c 0F93      		push r16
  45               	.LCFI6:
  46               		.cfi_def_cfa_offset 9
  47               		.cfi_offset 16, -8
  48 000e 1F93      		push r17
  49               	.LCFI7:
  50               		.cfi_def_cfa_offset 10
  51               		.cfi_offset 17, -9
  52 0010 CF93      		push r28
  53               	.LCFI8:
  54               		.cfi_def_cfa_offset 11
  55               		.cfi_offset 28, -10
  56 0012 DF93      		push r29
  57               	.LCFI9:
  58               		.cfi_def_cfa_offset 12
  59               		.cfi_offset 29, -11
  60               	/* prologue: function */
  61               	/* frame size = 0 */
  62               	/* stack size = 10 */
  63               	.L__stack_usage = 10
  64 0014 7C01      		movw r14,r24
  65 0016 5B01      		movw r10,r22
  66 0018 C42F      		mov r28,r20
  67 001a D22F      		mov r29,r18
  90:quantum/process_keycode/process_space_cadet.c ****     if (record->event.pressed) {
  68               		.loc 1 90 5 is_stmt 1 view .LVU2
  69               		.loc 1 90 8 is_stmt 0 view .LVU3
  70 001c FC01      		movw r30,r24
  71 001e 8281      		ldd r24,Z+2
  72               	.LVL1:
  73               		.loc 1 90 8 view .LVU4
  74 0020 8823      		tst r24
  75 0022 01F0      		breq .L2
  91:quantum/process_keycode/process_space_cadet.c ****         sc_last  = holdMod;
  76               		.loc 1 91 9 is_stmt 1 view .LVU5
  77               		.loc 1 91 18 is_stmt 0 view .LVU6
  78 0024 4093 0000 		sts sc_last,r20
  92:quantum/process_keycode/process_space_cadet.c ****         sc_timer = timer_read();
  79               		.loc 1 92 9 is_stmt 1 view .LVU7
  80               		.loc 1 92 20 is_stmt 0 view .LVU8
  81 0028 0E94 0000 		call timer_read
  82               	.LVL2:
  83               		.loc 1 92 18 view .LVU9
  84 002c 9093 0000 		sts sc_timer+1,r25
  85 0030 8093 0000 		sts sc_timer,r24
  93:quantum/process_keycode/process_space_cadet.c **** #ifdef SPACE_CADET_MODIFIER_CARRYOVER
  94:quantum/process_keycode/process_space_cadet.c ****         sc_mods = get_mods();
  95:quantum/process_keycode/process_space_cadet.c **** #endif
  96:quantum/process_keycode/process_space_cadet.c ****         if (IS_MOD(holdMod)) {
  86               		.loc 1 96 9 is_stmt 1 view .LVU10
  87               		.loc 1 96 13 is_stmt 0 view .LVU11
  88 0034 80E2      		ldi r24,lo8(32)
  89 0036 8C0F      		add r24,r28
  90               		.loc 1 96 12 view .LVU12
  91 0038 8830      		cpi r24,lo8(8)
  92 003a 00F0      		brlo .+2
  93 003c 00C0      		rjmp .L1
  97:quantum/process_keycode/process_space_cadet.c ****             register_mods(MOD_BIT(holdMod));
  94               		.loc 1 97 13 is_stmt 1 view .LVU13
  95               		.loc 1 97 27 is_stmt 0 view .LVU14
  96 003e C770      		andi r28,lo8(7)
  97               	.LVL3:
  98               		.loc 1 97 13 view .LVU15
  99 0040 81E0      		ldi r24,lo8(1)
 100 0042 00C0      		rjmp 2f
 101               		1:
 102 0044 880F      		lsl r24
 103               		2:
 104 0046 CA95      		dec r28
 105 0048 02F4      		brpl 1b
 106               	/* epilogue start */
  98:quantum/process_keycode/process_space_cadet.c ****         }
  99:quantum/process_keycode/process_space_cadet.c ****     } else {
 100:quantum/process_keycode/process_space_cadet.c ****         if (sc_last == holdMod && timer_elapsed(sc_timer) < get_tapping_term(sc_keycode, record)) {
 101:quantum/process_keycode/process_space_cadet.c ****             if (holdMod != tapMod) {
 102:quantum/process_keycode/process_space_cadet.c ****                 if (IS_MOD(holdMod)) {
 103:quantum/process_keycode/process_space_cadet.c ****                     unregister_mods(MOD_BIT(holdMod));
 104:quantum/process_keycode/process_space_cadet.c ****                 }
 105:quantum/process_keycode/process_space_cadet.c ****                 if (IS_MOD(tapMod)) {
 106:quantum/process_keycode/process_space_cadet.c ****                     register_mods(MOD_BIT(tapMod));
 107:quantum/process_keycode/process_space_cadet.c ****                 }
 108:quantum/process_keycode/process_space_cadet.c ****             }
 109:quantum/process_keycode/process_space_cadet.c **** #ifdef SPACE_CADET_MODIFIER_CARRYOVER
 110:quantum/process_keycode/process_space_cadet.c ****             set_weak_mods(sc_mods);
 111:quantum/process_keycode/process_space_cadet.c **** #endif
 112:quantum/process_keycode/process_space_cadet.c ****             tap_code(keycode);
 113:quantum/process_keycode/process_space_cadet.c **** #ifdef SPACE_CADET_MODIFIER_CARRYOVER
 114:quantum/process_keycode/process_space_cadet.c ****             clear_weak_mods();
 115:quantum/process_keycode/process_space_cadet.c **** #endif
 116:quantum/process_keycode/process_space_cadet.c ****             if (IS_MOD(tapMod)) {
 117:quantum/process_keycode/process_space_cadet.c ****                 unregister_mods(MOD_BIT(tapMod));
 118:quantum/process_keycode/process_space_cadet.c ****             }
 119:quantum/process_keycode/process_space_cadet.c ****         } else {
 120:quantum/process_keycode/process_space_cadet.c ****             if (IS_MOD(holdMod)) {
 121:quantum/process_keycode/process_space_cadet.c ****                 unregister_mods(MOD_BIT(holdMod));
 122:quantum/process_keycode/process_space_cadet.c ****             }
 123:quantum/process_keycode/process_space_cadet.c ****         }
 124:quantum/process_keycode/process_space_cadet.c ****     }
 125:quantum/process_keycode/process_space_cadet.c **** }
 107               		.loc 1 125 1 view .LVU16
 108 004a DF91      		pop r29
 109               	.LVL4:
 110               		.loc 1 125 1 view .LVU17
 111 004c CF91      		pop r28
 112 004e 1F91      		pop r17
 113 0050 0F91      		pop r16
 114               	.LVL5:
 115               		.loc 1 125 1 view .LVU18
 116 0052 FF90      		pop r15
 117 0054 EF90      		pop r14
 118               	.LVL6:
 119               		.loc 1 125 1 view .LVU19
 120 0056 DF90      		pop r13
 121 0058 CF90      		pop r12
 122 005a BF90      		pop r11
 123 005c AF90      		pop r10
 124               	.LVL7:
  97:quantum/process_keycode/process_space_cadet.c ****             register_mods(MOD_BIT(holdMod));
 125               		.loc 1 97 13 view .LVU20
 126 005e 0C94 0000 		jmp register_mods
 127               	.LVL8:
 128               	.L2:
 100:quantum/process_keycode/process_space_cadet.c ****             if (holdMod != tapMod) {
 129               		.loc 1 100 9 is_stmt 1 view .LVU21
 100:quantum/process_keycode/process_space_cadet.c ****             if (holdMod != tapMod) {
 130               		.loc 1 100 12 is_stmt 0 view .LVU22
 131 0062 1091 0000 		lds r17,sc_last
 132 0066 1413      		cpse r17,r20
 133 0068 00C0      		rjmp .L5
 100:quantum/process_keycode/process_space_cadet.c ****             if (holdMod != tapMod) {
 134               		.loc 1 100 35 discriminator 1 view .LVU23
 135 006a 8091 0000 		lds r24,sc_timer
 136 006e 9091 0000 		lds r25,sc_timer+1
 137 0072 0E94 0000 		call timer_elapsed
 138               	.LVL9:
 100:quantum/process_keycode/process_space_cadet.c ****             if (holdMod != tapMod) {
 139               		.loc 1 100 35 discriminator 1 view .LVU24
 140 0076 6C01      		movw r12,r24
 100:quantum/process_keycode/process_space_cadet.c ****             if (holdMod != tapMod) {
 141               		.loc 1 100 61 discriminator 1 view .LVU25
 142 0078 B701      		movw r22,r14
 143 007a C501      		movw r24,r10
 144 007c 0E94 0000 		call get_tapping_term
 145               	.LVL10:
 100:quantum/process_keycode/process_space_cadet.c ****             if (holdMod != tapMod) {
 146               		.loc 1 100 32 discriminator 1 view .LVU26
 147 0080 C816      		cp r12,r24
 148 0082 D906      		cpc r13,r25
 149 0084 00F4      		brsh .L5
 101:quantum/process_keycode/process_space_cadet.c ****                 if (IS_MOD(holdMod)) {
 150               		.loc 1 101 13 is_stmt 1 view .LVU27
 151 0086 C0E2      		ldi r28,lo8(32)
 152               	.LVL11:
 101:quantum/process_keycode/process_space_cadet.c ****                 if (IS_MOD(holdMod)) {
 153               		.loc 1 101 13 is_stmt 0 view .LVU28
 154 0088 CD0F      		add r28,r29
 101:quantum/process_keycode/process_space_cadet.c ****                 if (IS_MOD(holdMod)) {
 155               		.loc 1 101 16 view .LVU29
 156 008a 1D17      		cp r17,r29
 157 008c 01F0      		breq .L7
 102:quantum/process_keycode/process_space_cadet.c ****                     unregister_mods(MOD_BIT(holdMod));
 158               		.loc 1 102 17 is_stmt 1 view .LVU30
 102:quantum/process_keycode/process_space_cadet.c ****                     unregister_mods(MOD_BIT(holdMod));
 159               		.loc 1 102 21 is_stmt 0 view .LVU31
 160 008e 80E2      		ldi r24,lo8(32)
 161 0090 810F      		add r24,r17
 102:quantum/process_keycode/process_space_cadet.c ****                     unregister_mods(MOD_BIT(holdMod));
 162               		.loc 1 102 20 view .LVU32
 163 0092 8830      		cpi r24,lo8(8)
 164 0094 00F4      		brsh .L8
 103:quantum/process_keycode/process_space_cadet.c ****                 }
 165               		.loc 1 103 21 is_stmt 1 view .LVU33
 103:quantum/process_keycode/process_space_cadet.c ****                 }
 166               		.loc 1 103 37 is_stmt 0 view .LVU34
 167 0096 1770      		andi r17,lo8(7)
 103:quantum/process_keycode/process_space_cadet.c ****                 }
 168               		.loc 1 103 21 view .LVU35
 169 0098 81E0      		ldi r24,lo8(1)
 170 009a 00C0      		rjmp 2f
 171               		1:
 172 009c 880F      		lsl r24
 173               		2:
 174 009e 1A95      		dec r17
 175 00a0 02F4      		brpl 1b
 176 00a2 0E94 0000 		call unregister_mods
 177               	.LVL12:
 178               	.L8:
 105:quantum/process_keycode/process_space_cadet.c ****                     register_mods(MOD_BIT(tapMod));
 179               		.loc 1 105 17 is_stmt 1 view .LVU36
 105:quantum/process_keycode/process_space_cadet.c ****                     register_mods(MOD_BIT(tapMod));
 180               		.loc 1 105 20 is_stmt 0 view .LVU37
 181 00a6 C830      		cpi r28,lo8(8)
 182 00a8 00F4      		brsh .L7
 106:quantum/process_keycode/process_space_cadet.c ****                 }
 183               		.loc 1 106 21 is_stmt 1 view .LVU38
 184 00aa 81E0      		ldi r24,lo8(1)
 185 00ac 9D2F      		mov r25,r29
 186 00ae 9770      		andi r25,lo8(7)
 187 00b0 00C0      		rjmp 2f
 188               		1:
 189 00b2 880F      		lsl r24
 190               		2:
 191 00b4 9A95      		dec r25
 192 00b6 02F4      		brpl 1b
 193 00b8 0E94 0000 		call register_mods
 194               	.LVL13:
 195               	.L7:
 112:quantum/process_keycode/process_space_cadet.c **** #ifdef SPACE_CADET_MODIFIER_CARRYOVER
 196               		.loc 1 112 13 view .LVU39
 197 00bc 802F      		mov r24,r16
 198 00be 0E94 0000 		call tap_code
 199               	.LVL14:
 116:quantum/process_keycode/process_space_cadet.c ****                 unregister_mods(MOD_BIT(tapMod));
 200               		.loc 1 116 13 view .LVU40
 116:quantum/process_keycode/process_space_cadet.c ****                 unregister_mods(MOD_BIT(tapMod));
 201               		.loc 1 116 16 is_stmt 0 view .LVU41
 202 00c2 C830      		cpi r28,lo8(8)
 203 00c4 00F4      		brsh .L1
 117:quantum/process_keycode/process_space_cadet.c ****             }
 204               		.loc 1 117 17 is_stmt 1 view .LVU42
 117:quantum/process_keycode/process_space_cadet.c ****             }
 205               		.loc 1 117 33 is_stmt 0 view .LVU43
 206 00c6 D770      		andi r29,lo8(7)
 207               	.LVL15:
 117:quantum/process_keycode/process_space_cadet.c ****             }
 208               		.loc 1 117 17 view .LVU44
 209 00c8 81E0      		ldi r24,lo8(1)
 210 00ca 00C0      		rjmp 2f
 211               		1:
 212 00cc 880F      		lsl r24
 213               		2:
 214 00ce DA95      		dec r29
 215 00d0 02F4      		brpl 1b
 216               	.L11:
 217               	/* epilogue start */
 218               		.loc 1 125 1 view .LVU45
 219 00d2 DF91      		pop r29
 220 00d4 CF91      		pop r28
 221 00d6 1F91      		pop r17
 222 00d8 0F91      		pop r16
 223               	.LVL16:
 224               		.loc 1 125 1 view .LVU46
 225 00da FF90      		pop r15
 226 00dc EF90      		pop r14
 227               	.LVL17:
 228               		.loc 1 125 1 view .LVU47
 229 00de DF90      		pop r13
 230 00e0 CF90      		pop r12
 231 00e2 BF90      		pop r11
 232 00e4 AF90      		pop r10
 233               	.LVL18:
 121:quantum/process_keycode/process_space_cadet.c ****             }
 234               		.loc 1 121 17 view .LVU48
 235 00e6 0C94 0000 		jmp unregister_mods
 236               	.LVL19:
 237               	.L5:
 120:quantum/process_keycode/process_space_cadet.c ****                 unregister_mods(MOD_BIT(holdMod));
 238               		.loc 1 120 13 is_stmt 1 view .LVU49
 120:quantum/process_keycode/process_space_cadet.c ****                 unregister_mods(MOD_BIT(holdMod));
 239               		.loc 1 120 17 is_stmt 0 view .LVU50
 240 00ea 80E2      		ldi r24,lo8(32)
 241 00ec 8C0F      		add r24,r28
 120:quantum/process_keycode/process_space_cadet.c ****                 unregister_mods(MOD_BIT(holdMod));
 242               		.loc 1 120 16 view .LVU51
 243 00ee 8830      		cpi r24,lo8(8)
 244 00f0 00F4      		brsh .L1
 121:quantum/process_keycode/process_space_cadet.c ****             }
 245               		.loc 1 121 17 is_stmt 1 view .LVU52
 121:quantum/process_keycode/process_space_cadet.c ****             }
 246               		.loc 1 121 33 is_stmt 0 view .LVU53
 247 00f2 C770      		andi r28,lo8(7)
 248               	.LVL20:
 121:quantum/process_keycode/process_space_cadet.c ****             }
 249               		.loc 1 121 17 view .LVU54
 250 00f4 81E0      		ldi r24,lo8(1)
 251 00f6 00C0      		rjmp 2f
 252               		1:
 253 00f8 880F      		lsl r24
 254               		2:
 255 00fa CA95      		dec r28
 256 00fc 02F4      		brpl 1b
 257 00fe 00C0      		rjmp .L11
 258               	.L1:
 259               	/* epilogue start */
 260               		.loc 1 125 1 view .LVU55
 261 0100 DF91      		pop r29
 262               	.LVL21:
 263               		.loc 1 125 1 view .LVU56
 264 0102 CF91      		pop r28
 265 0104 1F91      		pop r17
 266 0106 0F91      		pop r16
 267               	.LVL22:
 268               		.loc 1 125 1 view .LVU57
 269 0108 FF90      		pop r15
 270 010a EF90      		pop r14
 271               	.LVL23:
 272               		.loc 1 125 1 view .LVU58
 273 010c DF90      		pop r13
 274 010e CF90      		pop r12
 275 0110 BF90      		pop r11
 276 0112 AF90      		pop r10
 277               	.LVL24:
 278               		.loc 1 125 1 view .LVU59
 279 0114 0895      		ret
 280               		.cfi_endproc
 281               	.LFE112:
 283               		.section	.text.process_space_cadet,"ax",@progbits
 284               	.global	process_space_cadet
 286               	process_space_cadet:
 287               	.LVL25:
 288               	.LFB113:
 126:quantum/process_keycode/process_space_cadet.c **** 
 127:quantum/process_keycode/process_space_cadet.c **** bool process_space_cadet(uint16_t keycode, keyrecord_t *record) {
 289               		.loc 1 127 65 is_stmt 1 view -0
 290               		.cfi_startproc
 291               		.loc 1 127 65 is_stmt 0 view .LVU61
 292 0000 0F93      		push r16
 293               	.LCFI10:
 294               		.cfi_def_cfa_offset 3
 295               		.cfi_offset 16, -2
 296               	/* prologue: function */
 297               	/* frame size = 0 */
 298               	/* stack size = 1 */
 299               	.L__stack_usage = 1
 300 0002 9C01      		movw r18,r24
 301 0004 CB01      		movw r24,r22
 302               	.LVL26:
 128:quantum/process_keycode/process_space_cadet.c ****     switch (keycode) {
 303               		.loc 1 128 5 is_stmt 1 view .LVU62
 304 0006 233F      		cpi r18,-13
 305 0008 4CE5      		ldi r20,92
 306 000a 3407      		cpc r19,r20
 307 000c 01F0      		breq .L13
 308 000e 00F4      		brsh .L14
 309 0010 283D      		cpi r18,-40
 310 0012 FCE5      		ldi r31,92
 311 0014 3F07      		cpc r19,r31
 312 0016 01F0      		breq .L15
 313 0018 293D      		cpi r18,-39
 314 001a 4CE5      		ldi r20,92
 315 001c 3407      		cpc r19,r20
 316 001e 01F0      		breq .L16
 317 0020 273D      		cpi r18,-41
 318 0022 3C45      		sbci r19,92
 319 0024 01F4      		brne .L18
 129:quantum/process_keycode/process_space_cadet.c ****         case KC_LSPO: {
 130:quantum/process_keycode/process_space_cadet.c ****             perform_space_cadet(record, keycode, LSPO_KEYS);
 320               		.loc 1 130 13 view .LVU63
 321 0026 06E2      		ldi r16,lo8(38)
 322 0028 21EE      		ldi r18,lo8(-31)
 323               	.LVL27:
 324               		.loc 1 130 13 is_stmt 0 view .LVU64
 325 002a 41EE      		ldi r20,lo8(-31)
 326 002c 67ED      		ldi r22,lo8(-41)
 327 002e 7CE5      		ldi r23,lo8(92)
 328               	.LVL28:
 329               	.L24:
 131:quantum/process_keycode/process_space_cadet.c ****             return false;
 132:quantum/process_keycode/process_space_cadet.c ****         }
 133:quantum/process_keycode/process_space_cadet.c ****         case KC_RSPC: {
 134:quantum/process_keycode/process_space_cadet.c ****             perform_space_cadet(record, keycode, RSPC_KEYS);
 135:quantum/process_keycode/process_space_cadet.c ****             return false;
 136:quantum/process_keycode/process_space_cadet.c ****         }
 137:quantum/process_keycode/process_space_cadet.c ****         case KC_LCPO: {
 138:quantum/process_keycode/process_space_cadet.c ****             perform_space_cadet(record, keycode, LCPO_KEYS);
 139:quantum/process_keycode/process_space_cadet.c ****             return false;
 140:quantum/process_keycode/process_space_cadet.c ****         }
 141:quantum/process_keycode/process_space_cadet.c ****         case KC_RCPC: {
 142:quantum/process_keycode/process_space_cadet.c ****             perform_space_cadet(record, keycode, RCPC_KEYS);
 143:quantum/process_keycode/process_space_cadet.c ****             return false;
 144:quantum/process_keycode/process_space_cadet.c ****         }
 145:quantum/process_keycode/process_space_cadet.c ****         case KC_LAPO: {
 146:quantum/process_keycode/process_space_cadet.c ****             perform_space_cadet(record, keycode, LAPO_KEYS);
 147:quantum/process_keycode/process_space_cadet.c ****             return false;
 148:quantum/process_keycode/process_space_cadet.c ****         }
 149:quantum/process_keycode/process_space_cadet.c ****         case KC_RAPC: {
 150:quantum/process_keycode/process_space_cadet.c ****             perform_space_cadet(record, keycode, RAPC_KEYS);
 151:quantum/process_keycode/process_space_cadet.c ****             return false;
 152:quantum/process_keycode/process_space_cadet.c ****         }
 153:quantum/process_keycode/process_space_cadet.c ****         case KC_SFTENT: {
 154:quantum/process_keycode/process_space_cadet.c ****             perform_space_cadet(record, keycode, SFTENT_KEYS);
 330               		.loc 1 154 13 view .LVU65
 331 0030 0E94 0000 		call perform_space_cadet
 332               	.LVL29:
 155:quantum/process_keycode/process_space_cadet.c ****             return false;
 333               		.loc 1 155 13 is_stmt 1 view .LVU66
 334               		.loc 1 155 20 is_stmt 0 view .LVU67
 335 0034 80E0      		ldi r24,0
 336               	.L12:
 337               	/* epilogue start */
 156:quantum/process_keycode/process_space_cadet.c ****         }
 157:quantum/process_keycode/process_space_cadet.c ****         default: {
 158:quantum/process_keycode/process_space_cadet.c ****             if (record->event.pressed) {
 159:quantum/process_keycode/process_space_cadet.c ****                 sc_last = 0;
 160:quantum/process_keycode/process_space_cadet.c ****             }
 161:quantum/process_keycode/process_space_cadet.c ****             break;
 162:quantum/process_keycode/process_space_cadet.c ****         }
 163:quantum/process_keycode/process_space_cadet.c ****     }
 164:quantum/process_keycode/process_space_cadet.c ****     return true;
 165:quantum/process_keycode/process_space_cadet.c **** }
 338               		.loc 1 165 1 view .LVU68
 339 0036 0F91      		pop r16
 340 0038 0895      		ret
 341               	.LVL30:
 342               	.L14:
 128:quantum/process_keycode/process_space_cadet.c ****         case KC_LSPO: {
 343               		.loc 1 128 5 view .LVU69
 344 003a 253F      		cpi r18,-11
 345 003c FCE5      		ldi r31,92
 346 003e 3F07      		cpc r19,r31
 347 0040 01F0      		breq .L19
 348 0042 00F0      		brlo .L20
 349 0044 263F      		cpi r18,-10
 350 0046 3C45      		sbci r19,92
 351 0048 01F0      		breq .L21
 352               	.L18:
 158:quantum/process_keycode/process_space_cadet.c ****                 sc_last = 0;
 353               		.loc 1 158 13 is_stmt 1 view .LVU70
 158:quantum/process_keycode/process_space_cadet.c ****                 sc_last = 0;
 354               		.loc 1 158 30 is_stmt 0 view .LVU71
 355 004a FC01      		movw r30,r24
 356 004c 8281      		ldd r24,Z+2
 158:quantum/process_keycode/process_space_cadet.c ****                 sc_last = 0;
 357               		.loc 1 158 16 view .LVU72
 358 004e 8823      		tst r24
 359 0050 01F0      		breq .L23
 159:quantum/process_keycode/process_space_cadet.c ****             }
 360               		.loc 1 159 17 is_stmt 1 view .LVU73
 159:quantum/process_keycode/process_space_cadet.c ****             }
 361               		.loc 1 159 25 is_stmt 0 view .LVU74
 362 0052 1092 0000 		sts sc_last,__zero_reg__
 363 0056 00C0      		rjmp .L12
 364               	.L15:
 134:quantum/process_keycode/process_space_cadet.c ****             return false;
 365               		.loc 1 134 13 is_stmt 1 view .LVU75
 366 0058 07E2      		ldi r16,lo8(39)
 367 005a 25EE      		ldi r18,lo8(-27)
 368               	.LVL31:
 134:quantum/process_keycode/process_space_cadet.c ****             return false;
 369               		.loc 1 134 13 is_stmt 0 view .LVU76
 370 005c 45EE      		ldi r20,lo8(-27)
 371 005e 68ED      		ldi r22,lo8(-40)
 372 0060 7CE5      		ldi r23,lo8(92)
 373               	.LVL32:
 134:quantum/process_keycode/process_space_cadet.c ****             return false;
 374               		.loc 1 134 13 view .LVU77
 375 0062 00C0      		rjmp .L24
 376               	.LVL33:
 377               	.L13:
 138:quantum/process_keycode/process_space_cadet.c ****             return false;
 378               		.loc 1 138 13 is_stmt 1 view .LVU78
 379 0064 06E2      		ldi r16,lo8(38)
 380 0066 21EE      		ldi r18,lo8(-31)
 381               	.LVL34:
 138:quantum/process_keycode/process_space_cadet.c ****             return false;
 382               		.loc 1 138 13 is_stmt 0 view .LVU79
 383 0068 40EE      		ldi r20,lo8(-32)
 384 006a 63EF      		ldi r22,lo8(-13)
 385 006c 7CE5      		ldi r23,lo8(92)
 386               	.LVL35:
 138:quantum/process_keycode/process_space_cadet.c ****             return false;
 387               		.loc 1 138 13 view .LVU80
 388 006e 00C0      		rjmp .L24
 389               	.LVL36:
 390               	.L20:
 142:quantum/process_keycode/process_space_cadet.c ****             return false;
 391               		.loc 1 142 13 is_stmt 1 view .LVU81
 392 0070 07E2      		ldi r16,lo8(39)
 393 0072 25EE      		ldi r18,lo8(-27)
 394               	.LVL37:
 142:quantum/process_keycode/process_space_cadet.c ****             return false;
 395               		.loc 1 142 13 is_stmt 0 view .LVU82
 396 0074 44EE      		ldi r20,lo8(-28)
 397 0076 64EF      		ldi r22,lo8(-12)
 398 0078 7CE5      		ldi r23,lo8(92)
 399               	.LVL38:
 142:quantum/process_keycode/process_space_cadet.c ****             return false;
 400               		.loc 1 142 13 view .LVU83
 401 007a 00C0      		rjmp .L24
 402               	.LVL39:
 403               	.L19:
 146:quantum/process_keycode/process_space_cadet.c ****             return false;
 404               		.loc 1 146 13 is_stmt 1 view .LVU84
 405 007c 06E2      		ldi r16,lo8(38)
 406 007e 21EE      		ldi r18,lo8(-31)
 407               	.LVL40:
 146:quantum/process_keycode/process_space_cadet.c ****             return false;
 408               		.loc 1 146 13 is_stmt 0 view .LVU85
 409 0080 42EE      		ldi r20,lo8(-30)
 410 0082 65EF      		ldi r22,lo8(-11)
 411 0084 7CE5      		ldi r23,lo8(92)
 412               	.LVL41:
 146:quantum/process_keycode/process_space_cadet.c ****             return false;
 413               		.loc 1 146 13 view .LVU86
 414 0086 00C0      		rjmp .L24
 415               	.LVL42:
 416               	.L21:
 150:quantum/process_keycode/process_space_cadet.c ****             return false;
 417               		.loc 1 150 13 is_stmt 1 view .LVU87
 418 0088 07E2      		ldi r16,lo8(39)
 419 008a 25EE      		ldi r18,lo8(-27)
 420               	.LVL43:
 150:quantum/process_keycode/process_space_cadet.c ****             return false;
 421               		.loc 1 150 13 is_stmt 0 view .LVU88
 422 008c 46EE      		ldi r20,lo8(-26)
 423 008e 66EF      		ldi r22,lo8(-10)
 424 0090 7CE5      		ldi r23,lo8(92)
 425               	.LVL44:
 150:quantum/process_keycode/process_space_cadet.c ****             return false;
 426               		.loc 1 150 13 view .LVU89
 427 0092 00C0      		rjmp .L24
 428               	.LVL45:
 429               	.L16:
 154:quantum/process_keycode/process_space_cadet.c ****             return false;
 430               		.loc 1 154 13 is_stmt 1 view .LVU90
 431 0094 08E2      		ldi r16,lo8(40)
 432 0096 21E0      		ldi r18,lo8(1)
 433               	.LVL46:
 154:quantum/process_keycode/process_space_cadet.c ****             return false;
 434               		.loc 1 154 13 is_stmt 0 view .LVU91
 435 0098 45EE      		ldi r20,lo8(-27)
 436 009a 69ED      		ldi r22,lo8(-39)
 437 009c 7CE5      		ldi r23,lo8(92)
 438               	.LVL47:
 154:quantum/process_keycode/process_space_cadet.c ****             return false;
 439               		.loc 1 154 13 view .LVU92
 440 009e 00C0      		rjmp .L24
 441               	.LVL48:
 442               	.L23:
 164:quantum/process_keycode/process_space_cadet.c **** }
 443               		.loc 1 164 12 view .LVU93
 444 00a0 81E0      		ldi r24,lo8(1)
 445 00a2 00C0      		rjmp .L12
 446               		.cfi_endproc
 447               	.LFE113:
 449               		.section	.bss.sc_timer,"aw",@nobits
 452               	sc_timer:
 453 0000 0000      		.zero	2
 454               		.section	.bss.sc_last,"aw",@nobits
 457               	sc_last:
 458 0000 00        		.zero	1
 459               		.text
 460               	.Letext0:
 461               		.file 2 "c:\\msys64\\mingw64\\avr\\include\\stdint.h"
 462               		.file 3 "c:\\msys64\\mingw64\\lib\\gcc\\avr\\8.4.0\\include\\stddef.h"
 463               		.file 4 "tmk_core/common/keyboard.h"
 464               		.file 5 "tmk_core/common/action.h"
 465               		.file 6 "lib/lufa/LUFA/Drivers/USB/Core/AVR8/../StdRequestType.h"
 466               		.file 7 "lib/lufa/LUFA/Drivers/USB/Core/AVR8/../DeviceStandardReq.h"
 467               		.file 8 "lib/lufa/LUFA/Drivers/USB/Core/USBTask.h"
 468               		.file 9 "lib/lufa/LUFA/Drivers/USB/Core/HostStandardReq.h"
 469               		.file 10 "c:\\msys64\\mingw64\\avr\\include\\stdio.h"
 470               		.file 11 "tmk_core/common/report.h"
 471               		.file 12 "tmk_core/common/host.h"
 472               		.file 13 "tmk_core/common/debug.h"
 473               		.file 14 "quantum/keycode_config.h"
 474               		.file 15 "tmk_core/common/keycode.h"
 475               		.file 16 "quantum/quantum_keycodes.h"
 476               		.file 17 "quantum/keymap.h"
 477               		.file 18 "tmk_core/common/action_layer.h"
 478               		.file 19 "tmk_core/common/timer.h"
 479               		.file 20 "tmk_core/common/action_util.h"
 480               		.file 21 "c:\\msys64\\mingw64\\avr\\include\\stdlib.h"
 481               		.file 22 "quantum/process_keycode/process_tap_dance.h"
 482               		.file 23 "quantum/quantum.h"
 483               		.file 24 "tmk_core/common/action_tapping.h"